
LLVM_Testing_Program.elf:     file format elf32-littlearm

Sections:
Idx Name          Size      VMA       LMA       File off  Algn
  0 .isr_vector   000001f8  08000000  08000000  00001000  2**0
                  CONTENTS, ALLOC, LOAD, READONLY, DATA
  1 .text         00001e44  08000200  08000200  00001200  2**4
                  CONTENTS, ALLOC, LOAD, READONLY, CODE
  2 .rodata       00000168  08002044  08002044  00003044  2**0
                  CONTENTS, ALLOC, LOAD, READONLY, DATA
  3 .ARM          00000008  080021ac  080021ac  000031ac  2**2
                  CONTENTS, ALLOC, LOAD, READONLY, DATA
  4 .init_array   00000004  080021b4  080021b4  000031b4  2**2
                  CONTENTS, ALLOC, LOAD, DATA
  5 .fini_array   00000004  080021b8  080021b8  000031b8  2**2
                  CONTENTS, ALLOC, LOAD, DATA
  6 .data         0000000c  20000000  080021bc  00004000  2**2
                  CONTENTS, ALLOC, LOAD, DATA
  7 .bss          00000adc  2000000c  080021c8  0000400c  2**2
                  ALLOC
  8 ._user_heap_stack 00000600  20000ae8  080021c8  00004ae8  2**0
                  ALLOC
  9 .ARM.attributes 0000002e  00000000  00000000  0000400c  2**0
                  CONTENTS, READONLY
 10 .debug_info   000180a0  00000000  00000000  0000403a  2**0
                  CONTENTS, READONLY, DEBUGGING, OCTETS
 11 .debug_abbrev 00002ced  00000000  00000000  0001c0da  2**0
                  CONTENTS, READONLY, DEBUGGING, OCTETS
 12 .debug_loclists 0000b929  00000000  00000000  0001edc7  2**0
                  CONTENTS, READONLY, DEBUGGING, OCTETS
 13 .debug_aranges 00000da8  00000000  00000000  0002a6f0  2**3
                  CONTENTS, READONLY, DEBUGGING, OCTETS
 14 .debug_rnglists 00001686  00000000  00000000  0002b498  2**0
                  CONTENTS, READONLY, DEBUGGING, OCTETS
 15 .debug_macro  00004557  00000000  00000000  0002cb1e  2**0
                  CONTENTS, READONLY, DEBUGGING, OCTETS
 16 .debug_line   00016237  00000000  00000000  00031075  2**0
                  CONTENTS, READONLY, DEBUGGING, OCTETS
 17 .debug_str    00112393  00000000  00000000  000472ac  2**0
                  CONTENTS, READONLY, DEBUGGING, OCTETS
 18 .comment      00000043  00000000  00000000  0015963f  2**0
                  CONTENTS, READONLY
 19 .debug_frame  00002838  00000000  00000000  00159684  2**2
                  CONTENTS, READONLY, DEBUGGING, OCTETS
 20 .debug_line_str 000000cf  00000000  00000000  0015bebc  2**0
                  CONTENTS, READONLY, DEBUGGING, OCTETS

Disassembly of section .text:

08000200 <__do_global_dtors_aux>:
 8000200:	b510      	push	{r4, lr}
 8000202:	4c05      	ldr	r4, [pc, #20]	@ (8000218 <__do_global_dtors_aux+0x18>)
 8000204:	7823      	ldrb	r3, [r4, #0]
 8000206:	b933      	cbnz	r3, 8000216 <__do_global_dtors_aux+0x16>
 8000208:	4b04      	ldr	r3, [pc, #16]	@ (800021c <__do_global_dtors_aux+0x1c>)
 800020a:	b113      	cbz	r3, 8000212 <__do_global_dtors_aux+0x12>
 800020c:	4804      	ldr	r0, [pc, #16]	@ (8000220 <__do_global_dtors_aux+0x20>)
 800020e:	f3af 8000 	nop.w
 8000212:	2301      	movs	r3, #1
 8000214:	7023      	strb	r3, [r4, #0]
 8000216:	bd10      	pop	{r4, pc}
 8000218:	2000000c 	.word	0x2000000c
 800021c:	00000000 	.word	0x00000000
 8000220:	0800202c 	.word	0x0800202c

08000224 <frame_dummy>:
 8000224:	b508      	push	{r3, lr}
 8000226:	4b03      	ldr	r3, [pc, #12]	@ (8000234 <frame_dummy+0x10>)
 8000228:	b11b      	cbz	r3, 8000232 <frame_dummy+0xe>
 800022a:	4903      	ldr	r1, [pc, #12]	@ (8000238 <frame_dummy+0x14>)
 800022c:	4803      	ldr	r0, [pc, #12]	@ (800023c <frame_dummy+0x18>)
 800022e:	f3af 8000 	nop.w
 8000232:	bd08      	pop	{r3, pc}
 8000234:	00000000 	.word	0x00000000
 8000238:	20000010 	.word	0x20000010
 800023c:	0800202c 	.word	0x0800202c

08000240 <SEGGER_RTT_ASM_WriteSkipNoLock>:
        //   R4 <Rem>
        //   R5 pRing->pBuffer
        //   R6 pRing (Points to active struct SEGGER_RTT_BUFFER_DOWN)
        //   R7 WrOff
        //
        PUSH     {R4-R7}
 8000240:	b4f0      	push	{r4, r5, r6, r7}
        ADD      R3,R0,R0, LSL #+1
 8000242:	eb00 0340 	add.w	r3, r0, r0, lsl #1
        LDR.W    R0,=_SEGGER_RTT                 // pRing = &_SEGGER_RTT.aUp[BufferIndex];
 8000246:	f8df 0080 	ldr.w	r0, [pc, #128]	@ 80002c8 <_Case3+0x6>
        ADD      R0,R0,R3, LSL #+3
 800024a:	eb00 00c3 	add.w	r0, r0, r3, lsl #3
        ADD      R6,R0,#+24
 800024e:	f100 0618 	add.w	r6, r0, #24
        LDR      R0,[R6, #+16]                   // RdOff = pRing->RdOff;
 8000252:	6930      	ldr	r0, [r6, #16]
        LDR      R7,[R6, #+12]                   // WrOff = pRing->WrOff;
 8000254:	68f7      	ldr	r7, [r6, #12]
        LDR      R5,[R6, #+4]                    // pRing->pBuffer
 8000256:	6875      	ldr	r5, [r6, #4]
        CMP      R7,R0
 8000258:	4287      	cmp	r7, r0
        BCC.N    _CheckCase4                     // if (RdOff <= WrOff) {                           => Case 1), 2) or 3)
 800025a:	d32e      	bcc.n	80002ba <_CheckCase4>
        //
        // Handling for case 1, later on identical to case 4
        //
        LDR      R3,[R6, #+8]                    //  Avail = pRing->SizeOfBuffer - WrOff - 1u;      => Space until wrap-around (assume 1 byte not usable for case that RdOff == 0)
 800025c:	68b3      	ldr	r3, [r6, #8]
        SUBS     R4,R3,R7                        // <Rem> (Used in case we jump into case 2 afterwards)
 800025e:	1bdc      	subs	r4, r3, r7
        SUBS     R3,R4,#+1                       // <Avail>
 8000260:	1e63      	subs	r3, r4, #1
        CMP      R3,R2
 8000262:	4293      	cmp	r3, r2
        BCC.N    _CheckCase2                     // if (Avail >= NumBytes) {  => Case 1)?
 8000264:	d312      	bcc.n	800028c <_CheckCase2>

08000266 <_Case4>:
_Case4:
        ADDS     R5,R7,R5                        // pBuffer += WrOff
 8000266:	197d      	adds	r5, r7, r5
        ADDS     R0,R2,R7                        // v = WrOff + NumBytes
 8000268:	19d0      	adds	r0, r2, r7
 800026a:	bf00      	nop

0800026c <_LoopCopyStraight>:
        // 2x unrolling for the copy loop that is used most of the time
        // This is a special optimization for small SystemView packets and makes them even faster
        //
        _ALIGN(2)
_LoopCopyStraight:                               // memcpy(pRing->pBuffer + WrOff, pData, NumBytes);
        LDRB     R3,[R1], #+1
 800026c:	f811 3b01 	ldrb.w	r3, [r1], #1
        STRB     R3,[R5], #+1                    // *pDest++ = *pSrc++
 8000270:	f805 3b01 	strb.w	r3, [r5], #1
        SUBS     R2,R2,#+1
 8000274:	3a01      	subs	r2, #1
        BEQ      _CSDone
 8000276:	d005      	beq.n	8000284 <_CSDone>
        LDRB     R3,[R1], #+1
 8000278:	f811 3b01 	ldrb.w	r3, [r1], #1
        STRB     R3,[R5], #+1                    // *pDest++ = *pSrc++
 800027c:	f805 3b01 	strb.w	r3, [r5], #1
        SUBS     R2,R2,#+1
 8000280:	3a01      	subs	r2, #1
        BNE      _LoopCopyStraight
 8000282:	d1f3      	bne.n	800026c <_LoopCopyStraight>

08000284 <_CSDone>:
_CSDone:
        STR      R0,[R6, #+12]                   // pRing->WrOff = WrOff + NumBytes;
 8000284:	60f0      	str	r0, [r6, #12]
        MOVS     R0,#+1
 8000286:	2001      	movs	r0, #1
        POP      {R4-R7}
 8000288:	bcf0      	pop	{r4, r5, r6, r7}
        BX       LR                              // Return 1
 800028a:	4770      	bx	lr

0800028c <_CheckCase2>:
_CheckCase2:
        ADDS     R0,R0,R3                        // Avail += RdOff; => Space incl. wrap-around
 800028c:	18c0      	adds	r0, r0, r3
        CMP      R0,R2
 800028e:	4290      	cmp	r0, r2
        BCC.N    _Case3                          // if (Avail >= NumBytes) {           => Case 2? => If not, we have case 3) (does not fit)
 8000290:	d317      	bcc.n	80002c2 <_Case3>
        //
        // Handling for case 2
        //
        ADDS     R0,R7,R5                        // v = pRing->pBuffer + WrOff => Do not change pRing->pBuffer here because 2nd chunk needs org. value
 8000292:	1978      	adds	r0, r7, r5
        SUBS     R2,R2,R4                        // NumBytes -= Rem;  (Rem = pRing->SizeOfBuffer - WrOff; => Space until end of buffer)
 8000294:	1b12      	subs	r2, r2, r4

08000296 <_LoopCopyBeforeWrapAround>:
_LoopCopyBeforeWrapAround:                       // memcpy(pRing->pBuffer + WrOff, pData, Rem); => Copy 1st chunk
        LDRB     R3,[R1], #+1
 8000296:	f811 3b01 	ldrb.w	r3, [r1], #1
        STRB     R3,[R0], #+1                    // *pDest++ = *pSrc++
 800029a:	f800 3b01 	strb.w	r3, [r0], #1
        SUBS     R4,R4,#+1
 800029e:	3c01      	subs	r4, #1
        BNE      _LoopCopyBeforeWrapAround
 80002a0:	d1f9      	bne.n	8000296 <_LoopCopyBeforeWrapAround>
        // Special case: First check that assumed RdOff == 0 calculated that last element before wrap-around could not be used
        // But 2nd check (considering space until wrap-around and until RdOff) revealed that RdOff is not 0, so we can use the last element
        // In this case, we may use a copy straight until buffer end anyway without needing to copy 2 chunks
        // Therefore, check if 2nd memcpy is necessary at all
        //
        ADDS     R4,R2,#+0                       // Save <NumBytes> (needed as counter in loop but must be written to <WrOff> after the loop). Also use this inst to update the flags to skip 2nd loop if possible
 80002a2:	1c14      	adds	r4, r2, #0
        BEQ.N    _No2ChunkNeeded                 // if (NumBytes) {
 80002a4:	d005      	beq.n	80002b2 <_No2ChunkNeeded>

080002a6 <_LoopCopyAfterWrapAround>:
_LoopCopyAfterWrapAround:                        // memcpy(pRing->pBuffer, pData + Rem, NumBytes);
        LDRB     R3,[R1], #+1                    // pData already points to the next src byte due to copy loop increment before this loop
 80002a6:	f811 3b01 	ldrb.w	r3, [r1], #1
        STRB     R3,[R5], #+1                    // *pDest++ = *pSrc++
 80002aa:	f805 3b01 	strb.w	r3, [r5], #1
        SUBS     R2,R2,#+1
 80002ae:	3a01      	subs	r2, #1
        BNE      _LoopCopyAfterWrapAround
 80002b0:	d1f9      	bne.n	80002a6 <_LoopCopyAfterWrapAround>

080002b2 <_No2ChunkNeeded>:
_No2ChunkNeeded:
        STR      R4,[R6, #+12]                   // pRing->WrOff = NumBytes; => Must be written after copying data because J-Link may read control block asynchronously while writing into buffer
 80002b2:	60f4      	str	r4, [r6, #12]
        MOVS     R0,#+1
 80002b4:	2001      	movs	r0, #1
        POP      {R4-R7}
 80002b6:	bcf0      	pop	{r4, r5, r6, r7}
        BX       LR                              // Return 1
 80002b8:	4770      	bx	lr

080002ba <_CheckCase4>:
_CheckCase4:
        SUBS     R0,R0,R7
 80002ba:	1bc0      	subs	r0, r0, r7
        SUBS     R0,R0,#+1                       // Avail = RdOff - WrOff - 1u;
 80002bc:	3801      	subs	r0, #1
        CMP      R0,R2
 80002be:	4290      	cmp	r0, r2
        BCS.N    _Case4                          // if (Avail >= NumBytes) {      => Case 4) == 1) ? => If not, we have case 5) == 3) (does not fit)
 80002c0:	d2d1      	bcs.n	8000266 <_Case4>

080002c2 <_Case3>:
_Case3:
        MOVS     R0,#+0
 80002c2:	2000      	movs	r0, #0
        POP      {R4-R7}
 80002c4:	bcf0      	pop	{r4, r5, r6, r7}
        BX       LR                              // Return 0
 80002c6:	4770      	bx	lr
        LDR.W    R0,=_SEGGER_RTT                 // pRing = &_SEGGER_RTT.aUp[BufferIndex];
 80002c8:	200008cc 	.word	0x200008cc

080002cc <strlen>:
 80002cc:	4603      	mov	r3, r0
 80002ce:	f813 2b01 	ldrb.w	r2, [r3], #1
 80002d2:	2a00      	cmp	r2, #0
 80002d4:	d1fb      	bne.n	80002ce <strlen+0x2>
 80002d6:	1a18      	subs	r0, r3, r0
 80002d8:	3801      	subs	r0, #1
 80002da:	4770      	bx	lr

080002dc <Error_Handler>:
{
  /* USER CODE BEGIN Error_Handler_Debug */
  /* User can add his own implementation to report the HAL error return state */

  /* USER CODE END Error_Handler_Debug */
}
 80002dc:	4770      	bx	lr
	...

080002e0 <assert_failed>:
  * @param  file: pointer to the source file name
  * @param  line: assert_param error line source number
  * @retval None
  */
void assert_failed(uint8_t *file, uint32_t line)
{
 80002e0:	460a      	mov	r2, r1
  SEGGER_SYSVIEW_PrintfHost("Assertion Failed:file %s \
 80002e2:	4601      	mov	r1, r0
 80002e4:	4802      	ldr	r0, [pc, #8]	@ (80002f0 <assert_failed+0x10>)
{
 80002e6:	b508      	push	{r3, lr}
  SEGGER_SYSVIEW_PrintfHost("Assertion Failed:file %s \
 80002e8:	f001 fafe 	bl	80018e8 <SEGGER_SYSVIEW_PrintfHost>
                            on line %d\r\n", file, line);
  while(1);
 80002ec:	e7fe      	b.n	80002ec <assert_failed+0xc>
 80002ee:	bf00      	nop
 80002f0:	0800205e 	.word	0x0800205e

080002f4 <HAL_InitTick>:
  *       implementation  in user file.
  * @param TickPriority Tick interrupt priority.
  * @retval HAL status
  */
__weak HAL_StatusTypeDef HAL_InitTick(uint32_t TickPriority)
{
 80002f4:	b538      	push	{r3, r4, r5, lr}
  /* Configure the SysTick to have interrupt in 1ms time basis*/
  if (HAL_SYSTICK_Config(SystemCoreClock / (1000U / uwTickFreq)) > 0U)
 80002f6:	4b0e      	ldr	r3, [pc, #56]	@ (8000330 <HAL_InitTick+0x3c>)
{
 80002f8:	4605      	mov	r5, r0
  if (HAL_SYSTICK_Config(SystemCoreClock / (1000U / uwTickFreq)) > 0U)
 80002fa:	781a      	ldrb	r2, [r3, #0]
 80002fc:	f44f 737a 	mov.w	r3, #1000	@ 0x3e8
 8000300:	fbb3 f3f2 	udiv	r3, r3, r2
 8000304:	4a0b      	ldr	r2, [pc, #44]	@ (8000334 <HAL_InitTick+0x40>)
 8000306:	6810      	ldr	r0, [r2, #0]
 8000308:	fbb0 f0f3 	udiv	r0, r0, r3
 800030c:	f000 f8a8 	bl	8000460 <HAL_SYSTICK_Config>
 8000310:	4604      	mov	r4, r0
 8000312:	b958      	cbnz	r0, 800032c <HAL_InitTick+0x38>
  {
    return HAL_ERROR;
  }

  /* Configure the SysTick IRQ priority */
  if (TickPriority < (1UL << __NVIC_PRIO_BITS))
 8000314:	2d0f      	cmp	r5, #15
 8000316:	d809      	bhi.n	800032c <HAL_InitTick+0x38>
  {
    HAL_NVIC_SetPriority(SysTick_IRQn, TickPriority, 0U);
 8000318:	4602      	mov	r2, r0
 800031a:	4629      	mov	r1, r5
 800031c:	f04f 30ff 	mov.w	r0, #4294967295
 8000320:	f000 f85a 	bl	80003d8 <HAL_NVIC_SetPriority>
    uwTickPrio = TickPriority;
 8000324:	4b04      	ldr	r3, [pc, #16]	@ (8000338 <HAL_InitTick+0x44>)
 8000326:	4620      	mov	r0, r4
 8000328:	601d      	str	r5, [r3, #0]
    return HAL_ERROR;
  }

  /* Return function status */
  return HAL_OK;
}
 800032a:	bd38      	pop	{r3, r4, r5, pc}
    return HAL_ERROR;
 800032c:	2001      	movs	r0, #1
 800032e:	e7fc      	b.n	800032a <HAL_InitTick+0x36>
 8000330:	20000000 	.word	0x20000000
 8000334:	20000008 	.word	0x20000008
 8000338:	20000004 	.word	0x20000004

0800033c <HAL_Init>:
{
 800033c:	b508      	push	{r3, lr}
  HAL_NVIC_SetPriorityGrouping(NVIC_PRIORITYGROUP_4);
 800033e:	2003      	movs	r0, #3
 8000340:	f000 f82c 	bl	800039c <HAL_NVIC_SetPriorityGrouping>
  HAL_InitTick(TICK_INT_PRIORITY);
 8000344:	200f      	movs	r0, #15
 8000346:	f7ff ffd5 	bl	80002f4 <HAL_InitTick>
  HAL_MspInit();
 800034a:	f001 fd79 	bl	8001e40 <HAL_MspInit>
}
 800034e:	2000      	movs	r0, #0
 8000350:	bd08      	pop	{r3, pc}
	...

08000354 <HAL_IncTick>:
  *      implementations in user file.
  * @retval None
  */
__weak void HAL_IncTick(void)
{
  uwTick += uwTickFreq;
 8000354:	4a03      	ldr	r2, [pc, #12]	@ (8000364 <HAL_IncTick+0x10>)
 8000356:	4b04      	ldr	r3, [pc, #16]	@ (8000368 <HAL_IncTick+0x14>)
 8000358:	6811      	ldr	r1, [r2, #0]
 800035a:	781b      	ldrb	r3, [r3, #0]
 800035c:	440b      	add	r3, r1
 800035e:	6013      	str	r3, [r2, #0]
}
 8000360:	4770      	bx	lr
 8000362:	bf00      	nop
 8000364:	20000028 	.word	0x20000028
 8000368:	20000000 	.word	0x20000000

0800036c <HAL_GetTick>:
  *       implementations in user file.
  * @retval tick value
  */
__weak uint32_t HAL_GetTick(void)
{
  return uwTick;
 800036c:	4b01      	ldr	r3, [pc, #4]	@ (8000374 <HAL_GetTick+0x8>)
 800036e:	6818      	ldr	r0, [r3, #0]
}
 8000370:	4770      	bx	lr
 8000372:	bf00      	nop
 8000374:	20000028 	.word	0x20000028

08000378 <HAL_Delay>:
  *       implementations in user file.
  * @param Delay  specifies the delay time length, in milliseconds.
  * @retval None
  */
__weak void HAL_Delay(uint32_t Delay)
{
 8000378:	b538      	push	{r3, r4, r5, lr}
 800037a:	4604      	mov	r4, r0
  uint32_t tickstart = HAL_GetTick();
 800037c:	f7ff fff6 	bl	800036c <HAL_GetTick>
 8000380:	4605      	mov	r5, r0
  uint32_t wait = Delay;

  /* Add a freq to guarantee minimum wait */
  if (wait < HAL_MAX_DELAY)
 8000382:	1c63      	adds	r3, r4, #1
  {
    wait += (uint32_t)(uwTickFreq);
 8000384:	bf1e      	ittt	ne
 8000386:	4b04      	ldrne	r3, [pc, #16]	@ (8000398 <HAL_Delay+0x20>)
 8000388:	781b      	ldrbne	r3, [r3, #0]
 800038a:	18e4      	addne	r4, r4, r3
  }

  while ((HAL_GetTick() - tickstart) < wait)
 800038c:	f7ff ffee 	bl	800036c <HAL_GetTick>
 8000390:	1b43      	subs	r3, r0, r5
 8000392:	42a3      	cmp	r3, r4
 8000394:	d3fa      	bcc.n	800038c <HAL_Delay+0x14>
  {
  }
}
 8000396:	bd38      	pop	{r3, r4, r5, pc}
 8000398:	20000000 	.word	0x20000000

0800039c <HAL_NVIC_SetPriorityGrouping>:
  * @retval None
  */
void HAL_NVIC_SetPriorityGrouping(uint32_t PriorityGroup)
{
  /* Check the parameters */
  assert_param(IS_NVIC_PRIORITY_GROUP(PriorityGroup));
 800039c:	1ec3      	subs	r3, r0, #3
 800039e:	2b04      	cmp	r3, #4
{
 80003a0:	b510      	push	{r4, lr}
 80003a2:	4604      	mov	r4, r0
  assert_param(IS_NVIC_PRIORITY_GROUP(PriorityGroup));
 80003a4:	d903      	bls.n	80003ae <HAL_NVIC_SetPriorityGrouping+0x12>
 80003a6:	2192      	movs	r1, #146	@ 0x92
 80003a8:	4809      	ldr	r0, [pc, #36]	@ (80003d0 <HAL_NVIC_SetPriorityGrouping+0x34>)
 80003aa:	f7ff ff99 	bl	80002e0 <assert_failed>
__STATIC_INLINE void __NVIC_SetPriorityGrouping(uint32_t PriorityGroup)
{
  uint32_t reg_value;
  uint32_t PriorityGroupTmp = (PriorityGroup & (uint32_t)0x07UL);             /* only values 0..7 are used          */

  reg_value  =  SCB->AIRCR;                                                   /* read old register configuration    */
 80003ae:	4909      	ldr	r1, [pc, #36]	@ (80003d4 <HAL_NVIC_SetPriorityGrouping+0x38>)
  reg_value &= ~((uint32_t)(SCB_AIRCR_VECTKEY_Msk | SCB_AIRCR_PRIGROUP_Msk)); /* clear bits to change               */
  reg_value  =  (reg_value                                   |
                ((uint32_t)0x5FAUL << SCB_AIRCR_VECTKEY_Pos) |
                (PriorityGroupTmp << SCB_AIRCR_PRIGROUP_Pos)  );              /* Insert write key and priority group */
 80003b0:	0223      	lsls	r3, r4, #8
  reg_value  =  SCB->AIRCR;                                                   /* read old register configuration    */
 80003b2:	68ca      	ldr	r2, [r1, #12]
                (PriorityGroupTmp << SCB_AIRCR_PRIGROUP_Pos)  );              /* Insert write key and priority group */
 80003b4:	f403 63e0 	and.w	r3, r3, #1792	@ 0x700
  reg_value &= ~((uint32_t)(SCB_AIRCR_VECTKEY_Msk | SCB_AIRCR_PRIGROUP_Msk)); /* clear bits to change               */
 80003b8:	f422 62e0 	bic.w	r2, r2, #1792	@ 0x700
 80003bc:	0412      	lsls	r2, r2, #16
 80003be:	0c12      	lsrs	r2, r2, #16
                ((uint32_t)0x5FAUL << SCB_AIRCR_VECTKEY_Pos) |
 80003c0:	4313      	orrs	r3, r2
  reg_value  =  (reg_value                                   |
 80003c2:	f043 63bf 	orr.w	r3, r3, #100139008	@ 0x5f80000
 80003c6:	f443 3300 	orr.w	r3, r3, #131072	@ 0x20000
  SCB->AIRCR =  reg_value;
 80003ca:	60cb      	str	r3, [r1, #12]
  
  /* Set the PRIGROUP[10:8] bits according to the PriorityGroup parameter value */
  NVIC_SetPriorityGrouping(PriorityGroup);
}
 80003cc:	bd10      	pop	{r4, pc}
 80003ce:	bf00      	nop
 80003d0:	080020a0 	.word	0x080020a0
 80003d4:	e000ed00 	.word	0xe000ed00

080003d8 <HAL_NVIC_SetPriority>:
void HAL_NVIC_SetPriority(IRQn_Type IRQn, uint32_t PreemptPriority, uint32_t SubPriority)
{ 
  uint32_t prioritygroup = 0x00;
  
  /* Check the parameters */
  assert_param(IS_NVIC_SUB_PRIORITY(SubPriority));
 80003d8:	2a0f      	cmp	r2, #15
{ 
 80003da:	b570      	push	{r4, r5, r6, lr}
 80003dc:	4605      	mov	r5, r0
 80003de:	460c      	mov	r4, r1
 80003e0:	4616      	mov	r6, r2
  assert_param(IS_NVIC_SUB_PRIORITY(SubPriority));
 80003e2:	d903      	bls.n	80003ec <HAL_NVIC_SetPriority+0x14>
 80003e4:	21aa      	movs	r1, #170	@ 0xaa
 80003e6:	481b      	ldr	r0, [pc, #108]	@ (8000454 <HAL_NVIC_SetPriority+0x7c>)
 80003e8:	f7ff ff7a 	bl	80002e0 <assert_failed>
  assert_param(IS_NVIC_PREEMPTION_PRIORITY(PreemptPriority));
 80003ec:	2c0f      	cmp	r4, #15
 80003ee:	d903      	bls.n	80003f8 <HAL_NVIC_SetPriority+0x20>
 80003f0:	21ab      	movs	r1, #171	@ 0xab
 80003f2:	4818      	ldr	r0, [pc, #96]	@ (8000454 <HAL_NVIC_SetPriority+0x7c>)
 80003f4:	f7ff ff74 	bl	80002e0 <assert_failed>
  \details Reads the priority grouping field from the NVIC Interrupt Controller.
  \return                Priority grouping field (SCB->AIRCR [10:8] PRIGROUP field).
 */
__STATIC_INLINE uint32_t __NVIC_GetPriorityGrouping(void)
{
  return ((uint32_t)((SCB->AIRCR & SCB_AIRCR_PRIGROUP_Msk) >> SCB_AIRCR_PRIGROUP_Pos));
 80003f8:	4b17      	ldr	r3, [pc, #92]	@ (8000458 <HAL_NVIC_SetPriority+0x80>)
 80003fa:	68d9      	ldr	r1, [r3, #12]
 80003fc:	f3c1 2102 	ubfx	r1, r1, #8, #3
{
  uint32_t PriorityGroupTmp = (PriorityGroup & (uint32_t)0x07UL);   /* only values 0..7 are used          */
  uint32_t PreemptPriorityBits;
  uint32_t SubPriorityBits;

  PreemptPriorityBits = ((7UL - PriorityGroupTmp) > (uint32_t)(__NVIC_PRIO_BITS)) ? (uint32_t)(__NVIC_PRIO_BITS) : (uint32_t)(7UL - PriorityGroupTmp);
 8000400:	f1c1 0307 	rsb	r3, r1, #7
  SubPriorityBits     = ((PriorityGroupTmp + (uint32_t)(__NVIC_PRIO_BITS)) < (uint32_t)7UL) ? (uint32_t)0UL : (uint32_t)((PriorityGroupTmp - 7UL) + (uint32_t)(__NVIC_PRIO_BITS));
 8000404:	1d0a      	adds	r2, r1, #4
  PreemptPriorityBits = ((7UL - PriorityGroupTmp) > (uint32_t)(__NVIC_PRIO_BITS)) ? (uint32_t)(__NVIC_PRIO_BITS) : (uint32_t)(7UL - PriorityGroupTmp);
 8000406:	2b04      	cmp	r3, #4
 8000408:	bf28      	it	cs
 800040a:	2304      	movcs	r3, #4
  SubPriorityBits     = ((PriorityGroupTmp + (uint32_t)(__NVIC_PRIO_BITS)) < (uint32_t)7UL) ? (uint32_t)0UL : (uint32_t)((PriorityGroupTmp - 7UL) + (uint32_t)(__NVIC_PRIO_BITS));
 800040c:	2a06      	cmp	r2, #6

  return (
           ((PreemptPriority & (uint32_t)((1UL << (PreemptPriorityBits)) - 1UL)) << SubPriorityBits) |
 800040e:	f04f 32ff 	mov.w	r2, #4294967295
  SubPriorityBits     = ((PriorityGroupTmp + (uint32_t)(__NVIC_PRIO_BITS)) < (uint32_t)7UL) ? (uint32_t)0UL : (uint32_t)((PriorityGroupTmp - 7UL) + (uint32_t)(__NVIC_PRIO_BITS));
 8000412:	bf8c      	ite	hi
 8000414:	3903      	subhi	r1, #3
 8000416:	2100      	movls	r1, #0
           ((PreemptPriority & (uint32_t)((1UL << (PreemptPriorityBits)) - 1UL)) << SubPriorityBits) |
 8000418:	fa02 f303 	lsl.w	r3, r2, r3
  if ((int32_t)(IRQn) >= 0)
 800041c:	2d00      	cmp	r5, #0
           ((SubPriority     & (uint32_t)((1UL << (SubPriorityBits    )) - 1UL)))
 800041e:	fa02 f201 	lsl.w	r2, r2, r1
           ((PreemptPriority & (uint32_t)((1UL << (PreemptPriorityBits)) - 1UL)) << SubPriorityBits) |
 8000422:	ea24 0303 	bic.w	r3, r4, r3
           ((SubPriority     & (uint32_t)((1UL << (SubPriorityBits    )) - 1UL)))
 8000426:	ea26 0602 	bic.w	r6, r6, r2
           ((PreemptPriority & (uint32_t)((1UL << (PreemptPriorityBits)) - 1UL)) << SubPriorityBits) |
 800042a:	fa03 f301 	lsl.w	r3, r3, r1
 800042e:	ea43 0306 	orr.w	r3, r3, r6
    NVIC->IP[((uint32_t)IRQn)]                = (uint8_t)((priority << (8U - __NVIC_PRIO_BITS)) & (uint32_t)0xFFUL);
 8000432:	ea4f 1303 	mov.w	r3, r3, lsl #4
 8000436:	b2db      	uxtb	r3, r3
  if ((int32_t)(IRQn) >= 0)
 8000438:	db06      	blt.n	8000448 <HAL_NVIC_SetPriority+0x70>
    NVIC->IP[((uint32_t)IRQn)]                = (uint8_t)((priority << (8U - __NVIC_PRIO_BITS)) & (uint32_t)0xFFUL);
 800043a:	f105 4560 	add.w	r5, r5, #3758096384	@ 0xe0000000
 800043e:	f505 4561 	add.w	r5, r5, #57600	@ 0xe100
 8000442:	f885 3300 	strb.w	r3, [r5, #768]	@ 0x300
  
  prioritygroup = NVIC_GetPriorityGrouping();
  
  NVIC_SetPriority(IRQn, NVIC_EncodePriority(prioritygroup, PreemptPriority, SubPriority));
}
 8000446:	bd70      	pop	{r4, r5, r6, pc}
    SCB->SHPR[(((uint32_t)IRQn) & 0xFUL)-4UL] = (uint8_t)((priority << (8U - __NVIC_PRIO_BITS)) & (uint32_t)0xFFUL);
 8000448:	f005 050f 	and.w	r5, r5, #15
 800044c:	4a03      	ldr	r2, [pc, #12]	@ (800045c <HAL_NVIC_SetPriority+0x84>)
 800044e:	5553      	strb	r3, [r2, r5]
 8000450:	e7f9      	b.n	8000446 <HAL_NVIC_SetPriority+0x6e>
 8000452:	bf00      	nop
 8000454:	080020a0 	.word	0x080020a0
 8000458:	e000ed00 	.word	0xe000ed00
 800045c:	e000ed14 	.word	0xe000ed14

08000460 <HAL_SYSTICK_Config>:
           function <b>SysTick_Config</b> is not included. In this case, the file <b><i>device</i>.h</b>
           must contain a vendor-specific implementation of this function.
 */
__STATIC_INLINE uint32_t SysTick_Config(uint32_t ticks)
{
  if ((ticks - 1UL) > SysTick_LOAD_RELOAD_Msk)
 8000460:	3801      	subs	r0, #1
 8000462:	f1b0 7f80 	cmp.w	r0, #16777216	@ 0x1000000
 8000466:	d20b      	bcs.n	8000480 <HAL_SYSTICK_Config+0x20>
  {
    return (1UL);                                                   /* Reload value impossible */
  }

  SysTick->LOAD  = (uint32_t)(ticks - 1UL);                         /* set reload register */
 8000468:	f04f 23e0 	mov.w	r3, #3758153728	@ 0xe000e000
    SCB->SHPR[(((uint32_t)IRQn) & 0xFUL)-4UL] = (uint8_t)((priority << (8U - __NVIC_PRIO_BITS)) & (uint32_t)0xFFUL);
 800046c:	4a05      	ldr	r2, [pc, #20]	@ (8000484 <HAL_SYSTICK_Config+0x24>)
 800046e:	21f0      	movs	r1, #240	@ 0xf0
  SysTick->LOAD  = (uint32_t)(ticks - 1UL);                         /* set reload register */
 8000470:	6158      	str	r0, [r3, #20]
  NVIC_SetPriority (SysTick_IRQn, (1UL << __NVIC_PRIO_BITS) - 1UL); /* set Priority for Systick Interrupt */
  SysTick->VAL   = 0UL;                                             /* Load the SysTick Counter Value */
 8000472:	2000      	movs	r0, #0
    SCB->SHPR[(((uint32_t)IRQn) & 0xFUL)-4UL] = (uint8_t)((priority << (8U - __NVIC_PRIO_BITS)) & (uint32_t)0xFFUL);
 8000474:	f882 1023 	strb.w	r1, [r2, #35]	@ 0x23
  SysTick->CTRL  = SysTick_CTRL_CLKSOURCE_Msk |
 8000478:	2207      	movs	r2, #7
  SysTick->VAL   = 0UL;                                             /* Load the SysTick Counter Value */
 800047a:	6198      	str	r0, [r3, #24]
  SysTick->CTRL  = SysTick_CTRL_CLKSOURCE_Msk |
 800047c:	611a      	str	r2, [r3, #16]
                   SysTick_CTRL_TICKINT_Msk   |
                   SysTick_CTRL_ENABLE_Msk;                         /* Enable SysTick IRQ and SysTick Timer */
  return (0UL);                                                     /* Function successful */
 800047e:	4770      	bx	lr
    return (1UL);                                                   /* Reload value impossible */
 8000480:	2001      	movs	r0, #1
  *                  - 1  Function failed.
  */
uint32_t HAL_SYSTICK_Config(uint32_t TicksNumb)
{
   return SysTick_Config(TicksNumb);
}
 8000482:	4770      	bx	lr
 8000484:	e000ed00 	.word	0xe000ed00

08000488 <HAL_GPIO_Init>:
  uint32_t ioposition = 0x00;
  uint32_t iocurrent = 0x00;
  uint32_t temp = 0x00;

  /* Check the parameters */
  assert_param(IS_GPIO_ALL_INSTANCE(GPIOx));
 8000488:	4ba5      	ldr	r3, [pc, #660]	@ (8000720 <HAL_GPIO_Init+0x298>)
 800048a:	4298      	cmp	r0, r3
{
 800048c:	e92d 4ff7 	stmdb	sp!, {r0, r1, r2, r4, r5, r6, r7, r8, r9, sl, fp, lr}
 8000490:	4604      	mov	r4, r0
 8000492:	460d      	mov	r5, r1
  assert_param(IS_GPIO_ALL_INSTANCE(GPIOx));
 8000494:	d02b      	beq.n	80004ee <HAL_GPIO_Init+0x66>
 8000496:	f503 6380 	add.w	r3, r3, #1024	@ 0x400
 800049a:	4298      	cmp	r0, r3
 800049c:	d027      	beq.n	80004ee <HAL_GPIO_Init+0x66>
 800049e:	f503 6380 	add.w	r3, r3, #1024	@ 0x400
 80004a2:	4298      	cmp	r0, r3
 80004a4:	d023      	beq.n	80004ee <HAL_GPIO_Init+0x66>
 80004a6:	f503 6380 	add.w	r3, r3, #1024	@ 0x400
 80004aa:	4298      	cmp	r0, r3
 80004ac:	d01f      	beq.n	80004ee <HAL_GPIO_Init+0x66>
 80004ae:	f503 6380 	add.w	r3, r3, #1024	@ 0x400
 80004b2:	4298      	cmp	r0, r3
 80004b4:	d01b      	beq.n	80004ee <HAL_GPIO_Init+0x66>
 80004b6:	f503 6380 	add.w	r3, r3, #1024	@ 0x400
 80004ba:	4298      	cmp	r0, r3
 80004bc:	d017      	beq.n	80004ee <HAL_GPIO_Init+0x66>
 80004be:	f503 6380 	add.w	r3, r3, #1024	@ 0x400
 80004c2:	4298      	cmp	r0, r3
 80004c4:	d013      	beq.n	80004ee <HAL_GPIO_Init+0x66>
 80004c6:	f503 6380 	add.w	r3, r3, #1024	@ 0x400
 80004ca:	4298      	cmp	r0, r3
 80004cc:	d00f      	beq.n	80004ee <HAL_GPIO_Init+0x66>
 80004ce:	f503 6380 	add.w	r3, r3, #1024	@ 0x400
 80004d2:	4298      	cmp	r0, r3
 80004d4:	d00b      	beq.n	80004ee <HAL_GPIO_Init+0x66>
 80004d6:	f503 6380 	add.w	r3, r3, #1024	@ 0x400
 80004da:	4298      	cmp	r0, r3
 80004dc:	d007      	beq.n	80004ee <HAL_GPIO_Init+0x66>
 80004de:	f503 6380 	add.w	r3, r3, #1024	@ 0x400
 80004e2:	4298      	cmp	r0, r3
 80004e4:	d003      	beq.n	80004ee <HAL_GPIO_Init+0x66>
 80004e6:	21b1      	movs	r1, #177	@ 0xb1
 80004e8:	488e      	ldr	r0, [pc, #568]	@ (8000724 <HAL_GPIO_Init+0x29c>)
 80004ea:	f7ff fef9 	bl	80002e0 <assert_failed>
  assert_param(IS_GPIO_PIN(GPIO_Init->Pin));
 80004ee:	882b      	ldrh	r3, [r5, #0]
 80004f0:	b91b      	cbnz	r3, 80004fa <HAL_GPIO_Init+0x72>
 80004f2:	21b2      	movs	r1, #178	@ 0xb2
 80004f4:	488b      	ldr	r0, [pc, #556]	@ (8000724 <HAL_GPIO_Init+0x29c>)
 80004f6:	f7ff fef3 	bl	80002e0 <assert_failed>
  assert_param(IS_GPIO_MODE(GPIO_Init->Mode));
 80004fa:	686b      	ldr	r3, [r5, #4]
 80004fc:	4a8a      	ldr	r2, [pc, #552]	@ (8000728 <HAL_GPIO_Init+0x2a0>)
 80004fe:	4293      	cmp	r3, r2
 8000500:	d013      	beq.n	800052a <HAL_GPIO_Init+0xa2>
 8000502:	f200 80f1 	bhi.w	80006e8 <HAL_GPIO_Init+0x260>
 8000506:	f5a2 1280 	sub.w	r2, r2, #1048576	@ 0x100000
 800050a:	4293      	cmp	r3, r2
 800050c:	d00d      	beq.n	800052a <HAL_GPIO_Init+0xa2>
 800050e:	d809      	bhi.n	8000524 <HAL_GPIO_Init+0x9c>
 8000510:	2b03      	cmp	r3, #3
 8000512:	d90a      	bls.n	800052a <HAL_GPIO_Init+0xa2>
 8000514:	3b11      	subs	r3, #17
 8000516:	2b01      	cmp	r3, #1
 8000518:	d907      	bls.n	800052a <HAL_GPIO_Init+0xa2>
 800051a:	21b3      	movs	r1, #179	@ 0xb3
 800051c:	4881      	ldr	r0, [pc, #516]	@ (8000724 <HAL_GPIO_Init+0x29c>)
 800051e:	f7ff fedf 	bl	80002e0 <assert_failed>
 8000522:	e002      	b.n	800052a <HAL_GPIO_Init+0xa2>
 8000524:	4a81      	ldr	r2, [pc, #516]	@ (800072c <HAL_GPIO_Init+0x2a4>)
 8000526:	4293      	cmp	r3, r2
 8000528:	d1f7      	bne.n	800051a <HAL_GPIO_Init+0x92>
  assert_param(IS_GPIO_PULL(GPIO_Init->Pull));
 800052a:	68ab      	ldr	r3, [r5, #8]
 800052c:	2b02      	cmp	r3, #2
 800052e:	d903      	bls.n	8000538 <HAL_GPIO_Init+0xb0>
 8000530:	21b4      	movs	r1, #180	@ 0xb4
 8000532:	487c      	ldr	r0, [pc, #496]	@ (8000724 <HAL_GPIO_Init+0x29c>)
 8000534:	f7ff fed4 	bl	80002e0 <assert_failed>
{
 8000538:	2600      	movs	r6, #0
        temp &= ~(((uint32_t)0x0F) << (4 * (position & 0x03)));
        temp |= ((uint32_t)(GPIO_GET_INDEX(GPIOx)) << (4 * (position & 0x03)));
        SYSCFG->EXTICR[position >> 2] = temp;

        /* Clear EXTI line configuration */
        temp = EXTI->IMR;
 800053a:	f8df 81fc 	ldr.w	r8, [pc, #508]	@ 8000738 <HAL_GPIO_Init+0x2b0>
    ioposition = ((uint32_t)0x01) << position;
 800053e:	2201      	movs	r2, #1
    iocurrent = (uint32_t)(GPIO_Init->Pin) & ioposition;
 8000540:	682b      	ldr	r3, [r5, #0]
    ioposition = ((uint32_t)0x01) << position;
 8000542:	fa02 f706 	lsl.w	r7, r2, r6
    iocurrent = (uint32_t)(GPIO_Init->Pin) & ioposition;
 8000546:	ea07 0903 	and.w	r9, r7, r3
    if(iocurrent == ioposition)
 800054a:	ea37 0303 	bics.w	r3, r7, r3
 800054e:	f040 80c4 	bne.w	80006da <HAL_GPIO_Init+0x252>
      if((GPIO_Init->Mode == GPIO_MODE_AF_PP) || (GPIO_Init->Mode == GPIO_MODE_AF_OD))
 8000552:	686b      	ldr	r3, [r5, #4]
 8000554:	f023 0310 	bic.w	r3, r3, #16
 8000558:	2b02      	cmp	r3, #2
 800055a:	d118      	bne.n	800058e <HAL_GPIO_Init+0x106>
        assert_param(IS_GPIO_AF(GPIO_Init->Alternate));
 800055c:	692b      	ldr	r3, [r5, #16]
 800055e:	2b0f      	cmp	r3, #15
 8000560:	d903      	bls.n	800056a <HAL_GPIO_Init+0xe2>
 8000562:	21c5      	movs	r1, #197	@ 0xc5
 8000564:	486f      	ldr	r0, [pc, #444]	@ (8000724 <HAL_GPIO_Init+0x29c>)
 8000566:	f7ff febb 	bl	80002e0 <assert_failed>
        temp = GPIOx->AFR[position >> 3];
 800056a:	08f1      	lsrs	r1, r6, #3
        temp &= ~((uint32_t)0xF << ((uint32_t)(position & (uint32_t)0x07) * 4)) ;
 800056c:	f006 0007 	and.w	r0, r6, #7
 8000570:	f04f 0c0f 	mov.w	ip, #15
 8000574:	eb04 0181 	add.w	r1, r4, r1, lsl #2
 8000578:	0080      	lsls	r0, r0, #2
        temp = GPIOx->AFR[position >> 3];
 800057a:	6a0b      	ldr	r3, [r1, #32]
        temp &= ~((uint32_t)0xF << ((uint32_t)(position & (uint32_t)0x07) * 4)) ;
 800057c:	fa0c fc00 	lsl.w	ip, ip, r0
 8000580:	ea23 0c0c 	bic.w	ip, r3, ip
        temp |= ((uint32_t)(GPIO_Init->Alternate) << (((uint32_t)position & (uint32_t)0x07) * 4));
 8000584:	692b      	ldr	r3, [r5, #16]
 8000586:	4083      	lsls	r3, r0
 8000588:	ea43 030c 	orr.w	r3, r3, ip
        GPIOx->AFR[position >> 3] = temp;
 800058c:	620b      	str	r3, [r1, #32]
      temp = GPIOx->MODER;
 800058e:	ea4f 0b46 	mov.w	fp, r6, lsl #1
      temp &= ~(GPIO_MODER_MODER0 << (position * 2));
 8000592:	2303      	movs	r3, #3
      temp = GPIOx->MODER;
 8000594:	6820      	ldr	r0, [r4, #0]
      temp &= ~(GPIO_MODER_MODER0 << (position * 2));
 8000596:	fa03 f30b 	lsl.w	r3, r3, fp
 800059a:	ea20 0003 	bic.w	r0, r0, r3
 800059e:	ea6f 0a03 	mvn.w	sl, r3
      temp |= ((GPIO_Init->Mode & GPIO_MODE) << (position * 2));
 80005a2:	686b      	ldr	r3, [r5, #4]
 80005a4:	f003 0103 	and.w	r1, r3, #3
      if((GPIO_Init->Mode == GPIO_MODE_OUTPUT_PP) || (GPIO_Init->Mode == GPIO_MODE_AF_PP) ||
 80005a8:	f023 0310 	bic.w	r3, r3, #16
      temp |= ((GPIO_Init->Mode & GPIO_MODE) << (position * 2));
 80005ac:	fa01 f10b 	lsl.w	r1, r1, fp
      if((GPIO_Init->Mode == GPIO_MODE_OUTPUT_PP) || (GPIO_Init->Mode == GPIO_MODE_AF_PP) ||
 80005b0:	3b01      	subs	r3, #1
      temp |= ((GPIO_Init->Mode & GPIO_MODE) << (position * 2));
 80005b2:	4301      	orrs	r1, r0
      if((GPIO_Init->Mode == GPIO_MODE_OUTPUT_PP) || (GPIO_Init->Mode == GPIO_MODE_AF_PP) ||
 80005b4:	2b01      	cmp	r3, #1
      GPIOx->MODER = temp;
 80005b6:	6021      	str	r1, [r4, #0]
      if((GPIO_Init->Mode == GPIO_MODE_OUTPUT_PP) || (GPIO_Init->Mode == GPIO_MODE_AF_PP) ||
 80005b8:	d817      	bhi.n	80005ea <HAL_GPIO_Init+0x162>
        assert_param(IS_GPIO_SPEED(GPIO_Init->Speed));
 80005ba:	68eb      	ldr	r3, [r5, #12]
 80005bc:	2b03      	cmp	r3, #3
 80005be:	d903      	bls.n	80005c8 <HAL_GPIO_Init+0x140>
 80005c0:	21d9      	movs	r1, #217	@ 0xd9
 80005c2:	4858      	ldr	r0, [pc, #352]	@ (8000724 <HAL_GPIO_Init+0x29c>)
 80005c4:	f7ff fe8c 	bl	80002e0 <assert_failed>
        temp = GPIOx->OSPEEDR; 
 80005c8:	68a1      	ldr	r1, [r4, #8]
        temp |= (GPIO_Init->Speed << (position * 2));
 80005ca:	68eb      	ldr	r3, [r5, #12]
        temp &= ~(GPIO_OSPEEDER_OSPEEDR0 << (position * 2));
 80005cc:	ea0a 0101 	and.w	r1, sl, r1
        temp |= (GPIO_Init->Speed << (position * 2));
 80005d0:	fa03 f30b 	lsl.w	r3, r3, fp
 80005d4:	430b      	orrs	r3, r1
        GPIOx->OSPEEDR = temp;
 80005d6:	60a3      	str	r3, [r4, #8]
        temp = GPIOx->OTYPER;
 80005d8:	6863      	ldr	r3, [r4, #4]
        temp &= ~(GPIO_OTYPER_OT_0 << position) ;
 80005da:	ea23 0207 	bic.w	r2, r3, r7
        temp |= (((GPIO_Init->Mode & GPIO_OUTPUT_TYPE) >> 4) << position);
 80005de:	686b      	ldr	r3, [r5, #4]
 80005e0:	f3c3 1300 	ubfx	r3, r3, #4, #1
 80005e4:	40b3      	lsls	r3, r6
 80005e6:	4313      	orrs	r3, r2
        GPIOx->OTYPER = temp;
 80005e8:	6063      	str	r3, [r4, #4]
      temp = GPIOx->PUPDR;
 80005ea:	68e3      	ldr	r3, [r4, #12]
      if((GPIO_Init->Mode & EXTI_MODE) == EXTI_MODE)
 80005ec:	6869      	ldr	r1, [r5, #4]
      temp &= ~(GPIO_PUPDR_PUPDR0 << (position * 2));
 80005ee:	ea0a 0a03 	and.w	sl, sl, r3
      temp |= ((GPIO_Init->Pull) << (position * 2));
 80005f2:	68ab      	ldr	r3, [r5, #8]
      if((GPIO_Init->Mode & EXTI_MODE) == EXTI_MODE)
 80005f4:	00cf      	lsls	r7, r1, #3
      temp |= ((GPIO_Init->Pull) << (position * 2));
 80005f6:	fa03 f30b 	lsl.w	r3, r3, fp
 80005fa:	ea43 030a 	orr.w	r3, r3, sl
      GPIOx->PUPDR = temp;
 80005fe:	60e3      	str	r3, [r4, #12]
      if((GPIO_Init->Mode & EXTI_MODE) == EXTI_MODE)
 8000600:	d56b      	bpl.n	80006da <HAL_GPIO_Init+0x252>
        __HAL_RCC_SYSCFG_CLK_ENABLE();
 8000602:	4b4b      	ldr	r3, [pc, #300]	@ (8000730 <HAL_GPIO_Init+0x2a8>)
        temp &= ~(((uint32_t)0x0F) << (4 * (position & 0x03)));
 8000604:	f006 0003 	and.w	r0, r6, #3
        __HAL_RCC_SYSCFG_CLK_ENABLE();
 8000608:	6c5a      	ldr	r2, [r3, #68]	@ 0x44
        temp &= ~(((uint32_t)0x0F) << (4 * (position & 0x03)));
 800060a:	0080      	lsls	r0, r0, #2
        __HAL_RCC_SYSCFG_CLK_ENABLE();
 800060c:	f442 4280 	orr.w	r2, r2, #16384	@ 0x4000
 8000610:	645a      	str	r2, [r3, #68]	@ 0x44
 8000612:	f026 0203 	bic.w	r2, r6, #3
 8000616:	6c5b      	ldr	r3, [r3, #68]	@ 0x44
 8000618:	f102 4280 	add.w	r2, r2, #1073741824	@ 0x40000000
 800061c:	f403 4380 	and.w	r3, r3, #16384	@ 0x4000
 8000620:	f502 329c 	add.w	r2, r2, #79872	@ 0x13800
 8000624:	9301      	str	r3, [sp, #4]
 8000626:	9b01      	ldr	r3, [sp, #4]
        temp &= ~(((uint32_t)0x0F) << (4 * (position & 0x03)));
 8000628:	230f      	movs	r3, #15
        temp = SYSCFG->EXTICR[position >> 2];
 800062a:	f8d2 c008 	ldr.w	ip, [r2, #8]
        temp &= ~(((uint32_t)0x0F) << (4 * (position & 0x03)));
 800062e:	4083      	lsls	r3, r0
 8000630:	ea2c 0c03 	bic.w	ip, ip, r3
        temp |= ((uint32_t)(GPIO_GET_INDEX(GPIOx)) << (4 * (position & 0x03)));
 8000634:	4b3a      	ldr	r3, [pc, #232]	@ (8000720 <HAL_GPIO_Init+0x298>)
 8000636:	429c      	cmp	r4, r3
 8000638:	d05f      	beq.n	80006fa <HAL_GPIO_Init+0x272>
 800063a:	f503 6380 	add.w	r3, r3, #1024	@ 0x400
 800063e:	429c      	cmp	r4, r3
 8000640:	d05d      	beq.n	80006fe <HAL_GPIO_Init+0x276>
 8000642:	f503 6380 	add.w	r3, r3, #1024	@ 0x400
 8000646:	429c      	cmp	r4, r3
 8000648:	d05b      	beq.n	8000702 <HAL_GPIO_Init+0x27a>
 800064a:	f503 6380 	add.w	r3, r3, #1024	@ 0x400
 800064e:	429c      	cmp	r4, r3
 8000650:	d059      	beq.n	8000706 <HAL_GPIO_Init+0x27e>
 8000652:	f503 6380 	add.w	r3, r3, #1024	@ 0x400
 8000656:	429c      	cmp	r4, r3
 8000658:	d057      	beq.n	800070a <HAL_GPIO_Init+0x282>
 800065a:	f503 6380 	add.w	r3, r3, #1024	@ 0x400
 800065e:	429c      	cmp	r4, r3
 8000660:	d055      	beq.n	800070e <HAL_GPIO_Init+0x286>
 8000662:	f503 6380 	add.w	r3, r3, #1024	@ 0x400
 8000666:	429c      	cmp	r4, r3
 8000668:	d053      	beq.n	8000712 <HAL_GPIO_Init+0x28a>
 800066a:	f503 6380 	add.w	r3, r3, #1024	@ 0x400
 800066e:	429c      	cmp	r4, r3
 8000670:	d051      	beq.n	8000716 <HAL_GPIO_Init+0x28e>
 8000672:	f503 6380 	add.w	r3, r3, #1024	@ 0x400
 8000676:	429c      	cmp	r4, r3
 8000678:	d04f      	beq.n	800071a <HAL_GPIO_Init+0x292>
 800067a:	f503 6380 	add.w	r3, r3, #1024	@ 0x400
 800067e:	429c      	cmp	r4, r3
 8000680:	bf14      	ite	ne
 8000682:	230a      	movne	r3, #10
 8000684:	2309      	moveq	r3, #9
 8000686:	4083      	lsls	r3, r0
        temp &= ~((uint32_t)iocurrent);
        if((GPIO_Init->Mode & GPIO_MODE_IT) == GPIO_MODE_IT)
 8000688:	03c8      	lsls	r0, r1, #15
        temp |= ((uint32_t)(GPIO_GET_INDEX(GPIOx)) << (4 * (position & 0x03)));
 800068a:	ea43 030c 	orr.w	r3, r3, ip
        SYSCFG->EXTICR[position >> 2] = temp;
 800068e:	6093      	str	r3, [r2, #8]
        temp &= ~((uint32_t)iocurrent);
 8000690:	ea6f 0209 	mvn.w	r2, r9
        temp = EXTI->IMR;
 8000694:	f8d8 3000 	ldr.w	r3, [r8]
        temp &= ~((uint32_t)iocurrent);
 8000698:	bf54      	ite	pl
 800069a:	4013      	andpl	r3, r2
        {
          temp |= iocurrent;
 800069c:	ea49 0303 	orrmi.w	r3, r9, r3
        }
        EXTI->IMR = temp;

        temp = EXTI->EMR;
        temp &= ~((uint32_t)iocurrent);
        if((GPIO_Init->Mode & GPIO_MODE_EVT) == GPIO_MODE_EVT)
 80006a0:	038f      	lsls	r7, r1, #14
        EXTI->IMR = temp;
 80006a2:	f8c8 3000 	str.w	r3, [r8]
        temp = EXTI->EMR;
 80006a6:	f8d8 3004 	ldr.w	r3, [r8, #4]
        temp &= ~((uint32_t)iocurrent);
 80006aa:	bf54      	ite	pl
 80006ac:	4013      	andpl	r3, r2
        {
          temp |= iocurrent;
 80006ae:	ea49 0303 	orrmi.w	r3, r9, r3
        EXTI->EMR = temp;

        /* Clear Rising Falling edge configuration */
        temp = EXTI->RTSR;
        temp &= ~((uint32_t)iocurrent);
        if((GPIO_Init->Mode & RISING_EDGE) == RISING_EDGE)
 80006b2:	02c8      	lsls	r0, r1, #11
        EXTI->EMR = temp;
 80006b4:	f8c8 3004 	str.w	r3, [r8, #4]
        temp = EXTI->RTSR;
 80006b8:	f8d8 3008 	ldr.w	r3, [r8, #8]
        temp &= ~((uint32_t)iocurrent);
 80006bc:	bf54      	ite	pl
 80006be:	4013      	andpl	r3, r2
        {
          temp |= iocurrent;
 80006c0:	ea49 0303 	orrmi.w	r3, r9, r3
        }
        EXTI->RTSR = temp;

        temp = EXTI->FTSR;
        temp &= ~((uint32_t)iocurrent);
        if((GPIO_Init->Mode & FALLING_EDGE) == FALLING_EDGE)
 80006c4:	0289      	lsls	r1, r1, #10
        EXTI->RTSR = temp;
 80006c6:	f8c8 3008 	str.w	r3, [r8, #8]
        temp = EXTI->FTSR;
 80006ca:	f8d8 300c 	ldr.w	r3, [r8, #12]
        temp &= ~((uint32_t)iocurrent);
 80006ce:	bf54      	ite	pl
 80006d0:	4013      	andpl	r3, r2
        {
          temp |= iocurrent;
 80006d2:	ea49 0303 	orrmi.w	r3, r9, r3
        }
        EXTI->FTSR = temp;
 80006d6:	f8c8 300c 	str.w	r3, [r8, #12]
  for(position = 0; position < GPIO_NUMBER; position++)
 80006da:	3601      	adds	r6, #1
 80006dc:	2e10      	cmp	r6, #16
 80006de:	f47f af2e 	bne.w	800053e <HAL_GPIO_Init+0xb6>
      }
    }
  }
}
 80006e2:	b003      	add	sp, #12
 80006e4:	e8bd 8ff0 	ldmia.w	sp!, {r4, r5, r6, r7, r8, r9, sl, fp, pc}
 80006e8:	4a12      	ldr	r2, [pc, #72]	@ (8000734 <HAL_GPIO_Init+0x2ac>)
 80006ea:	4293      	cmp	r3, r2
 80006ec:	f43f af1d 	beq.w	800052a <HAL_GPIO_Init+0xa2>
 80006f0:	f423 1380 	bic.w	r3, r3, #1048576	@ 0x100000
 80006f4:	f5a2 2270 	sub.w	r2, r2, #983040	@ 0xf0000
 80006f8:	e715      	b.n	8000526 <HAL_GPIO_Init+0x9e>
        temp |= ((uint32_t)(GPIO_GET_INDEX(GPIOx)) << (4 * (position & 0x03)));
 80006fa:	2300      	movs	r3, #0
 80006fc:	e7c3      	b.n	8000686 <HAL_GPIO_Init+0x1fe>
 80006fe:	2301      	movs	r3, #1
 8000700:	e7c1      	b.n	8000686 <HAL_GPIO_Init+0x1fe>
 8000702:	2302      	movs	r3, #2
 8000704:	e7bf      	b.n	8000686 <HAL_GPIO_Init+0x1fe>
 8000706:	2303      	movs	r3, #3
 8000708:	e7bd      	b.n	8000686 <HAL_GPIO_Init+0x1fe>
 800070a:	2304      	movs	r3, #4
 800070c:	e7bb      	b.n	8000686 <HAL_GPIO_Init+0x1fe>
 800070e:	2305      	movs	r3, #5
 8000710:	e7b9      	b.n	8000686 <HAL_GPIO_Init+0x1fe>
 8000712:	2306      	movs	r3, #6
 8000714:	e7b7      	b.n	8000686 <HAL_GPIO_Init+0x1fe>
 8000716:	2307      	movs	r3, #7
 8000718:	e7b5      	b.n	8000686 <HAL_GPIO_Init+0x1fe>
 800071a:	2308      	movs	r3, #8
 800071c:	e7b3      	b.n	8000686 <HAL_GPIO_Init+0x1fe>
 800071e:	bf00      	nop
 8000720:	40020000 	.word	0x40020000
 8000724:	08002101 	.word	0x08002101
 8000728:	10210000 	.word	0x10210000
 800072c:	10120000 	.word	0x10120000
 8000730:	40023800 	.word	0x40023800
 8000734:	10310000 	.word	0x10310000
 8000738:	40013c00 	.word	0x40013c00

0800073c <HAL_GPIO_WritePin>:
  *            @arg GPIO_PIN_RESET: to clear the port pin
  *            @arg GPIO_PIN_SET: to set the port pin
  * @retval None
  */
void HAL_GPIO_WritePin(GPIO_TypeDef* GPIOx, uint16_t GPIO_Pin, GPIO_PinState PinState)
{
 800073c:	b570      	push	{r4, r5, r6, lr}
 800073e:	4605      	mov	r5, r0
 8000740:	4616      	mov	r6, r2
  /* Check the parameters */
  assert_param(IS_GPIO_PIN(GPIO_Pin));
 8000742:	460c      	mov	r4, r1
 8000744:	b921      	cbnz	r1, 8000750 <HAL_GPIO_WritePin+0x14>
 8000746:	f44f 71cd 	mov.w	r1, #410	@ 0x19a
 800074a:	4808      	ldr	r0, [pc, #32]	@ (800076c <HAL_GPIO_WritePin+0x30>)
 800074c:	f7ff fdc8 	bl	80002e0 <assert_failed>
  assert_param(IS_GPIO_PIN_ACTION(PinState));
 8000750:	2e01      	cmp	r6, #1
 8000752:	d906      	bls.n	8000762 <HAL_GPIO_WritePin+0x26>
 8000754:	f240 119b 	movw	r1, #411	@ 0x19b
 8000758:	4804      	ldr	r0, [pc, #16]	@ (800076c <HAL_GPIO_WritePin+0x30>)
 800075a:	f7ff fdc1 	bl	80002e0 <assert_failed>
  {
    GPIOx->BSRR = GPIO_Pin;
  }
  else
  {
    GPIOx->BSRR = (uint32_t)GPIO_Pin << 16;
 800075e:	61ac      	str	r4, [r5, #24]
  }
}
 8000760:	bd70      	pop	{r4, r5, r6, pc}
  if(PinState != GPIO_PIN_RESET)
 8000762:	2e00      	cmp	r6, #0
 8000764:	d1fb      	bne.n	800075e <HAL_GPIO_WritePin+0x22>
    GPIOx->BSRR = (uint32_t)GPIO_Pin << 16;
 8000766:	0424      	lsls	r4, r4, #16
 8000768:	e7f9      	b.n	800075e <HAL_GPIO_WritePin+0x22>
 800076a:	bf00      	nop
 800076c:	08002101 	.word	0x08002101

08000770 <SPI_WaitFlagStateUntilTimeout.constprop.0>:
  * @param  State flag state to check
  * @param  Timeout Timeout duration
  * @param  Tickstart tick start value
  * @retval HAL status
  */
static HAL_StatusTypeDef SPI_WaitFlagStateUntilTimeout(SPI_HandleTypeDef *hspi, uint32_t Flag, FlagStatus State,
 8000770:	b5f7      	push	{r0, r1, r2, r4, r5, r6, r7, lr}
 8000772:	460e      	mov	r6, r1
 8000774:	4614      	mov	r4, r2
 8000776:	4605      	mov	r5, r0
  __IO uint32_t count;
  uint32_t tmp_timeout;
  uint32_t tmp_tickstart;

  /* Adjust Timeout value  in case of end of transfer */
  tmp_timeout   = Timeout - (HAL_GetTick() - Tickstart);
 8000778:	f7ff fdf8 	bl	800036c <HAL_GetTick>
 800077c:	4434      	add	r4, r6
 800077e:	1a24      	subs	r4, r4, r0
  tmp_tickstart = HAL_GetTick();
 8000780:	f7ff fdf4 	bl	800036c <HAL_GetTick>

  /* Calculate Timeout based on a software loop to avoid blocking issue if Systick is disabled */
  count = tmp_timeout * ((SystemCoreClock * 32U) >> 20U);
 8000784:	4b21      	ldr	r3, [pc, #132]	@ (800080c <SPI_WaitFlagStateUntilTimeout.constprop.0+0x9c>)
  tmp_tickstart = HAL_GetTick();
 8000786:	4607      	mov	r7, r0
  count = tmp_timeout * ((SystemCoreClock * 32U) >> 20U);
 8000788:	681b      	ldr	r3, [r3, #0]
 800078a:	f3c3 33cb 	ubfx	r3, r3, #15, #12
 800078e:	4363      	muls	r3, r4
      {
        tmp_timeout = 0U;
      }
      else
      {
        count--;
 8000790:	9301      	str	r3, [sp, #4]
  while ((__HAL_SPI_GET_FLAG(hspi, Flag) ? SET : RESET) != State)
 8000792:	682a      	ldr	r2, [r5, #0]
 8000794:	6890      	ldr	r0, [r2, #8]
 8000796:	f010 0080 	ands.w	r0, r0, #128	@ 0x80
 800079a:	d02d      	beq.n	80007f8 <SPI_WaitFlagStateUntilTimeout.constprop.0+0x88>
    if (Timeout != HAL_MAX_DELAY)
 800079c:	1c73      	adds	r3, r6, #1
 800079e:	d0f9      	beq.n	8000794 <SPI_WaitFlagStateUntilTimeout.constprop.0+0x24>
      if (((HAL_GetTick() - tmp_tickstart) >= tmp_timeout) || (tmp_timeout == 0U))
 80007a0:	f7ff fde4 	bl	800036c <HAL_GetTick>
 80007a4:	1bc0      	subs	r0, r0, r7
 80007a6:	42a0      	cmp	r0, r4
 80007a8:	d328      	bcc.n	80007fc <SPI_WaitFlagStateUntilTimeout.constprop.0+0x8c>
        __HAL_SPI_DISABLE_IT(hspi, (SPI_IT_TXE | SPI_IT_RXNE | SPI_IT_ERR));
 80007aa:	682b      	ldr	r3, [r5, #0]
 80007ac:	685a      	ldr	r2, [r3, #4]
 80007ae:	f022 02e0 	bic.w	r2, r2, #224	@ 0xe0
 80007b2:	605a      	str	r2, [r3, #4]
        if ((hspi->Init.Mode == SPI_MODE_MASTER) && ((hspi->Init.Direction == SPI_DIRECTION_1LINE)
 80007b4:	686a      	ldr	r2, [r5, #4]
 80007b6:	f5b2 7f82 	cmp.w	r2, #260	@ 0x104
 80007ba:	d10a      	bne.n	80007d2 <SPI_WaitFlagStateUntilTimeout.constprop.0+0x62>
 80007bc:	68aa      	ldr	r2, [r5, #8]
 80007be:	f5b2 4f00 	cmp.w	r2, #32768	@ 0x8000
 80007c2:	d002      	beq.n	80007ca <SPI_WaitFlagStateUntilTimeout.constprop.0+0x5a>
                                                     || (hspi->Init.Direction == SPI_DIRECTION_2LINES_RXONLY)))
 80007c4:	f5b2 6f80 	cmp.w	r2, #1024	@ 0x400
 80007c8:	d103      	bne.n	80007d2 <SPI_WaitFlagStateUntilTimeout.constprop.0+0x62>
          __HAL_SPI_DISABLE(hspi);
 80007ca:	681a      	ldr	r2, [r3, #0]
 80007cc:	f022 0240 	bic.w	r2, r2, #64	@ 0x40
 80007d0:	601a      	str	r2, [r3, #0]
        if (hspi->Init.CRCCalculation == SPI_CRCCALCULATION_ENABLE)
 80007d2:	6aaa      	ldr	r2, [r5, #40]	@ 0x28
 80007d4:	f5b2 5f00 	cmp.w	r2, #8192	@ 0x2000
 80007d8:	d107      	bne.n	80007ea <SPI_WaitFlagStateUntilTimeout.constprop.0+0x7a>
          SPI_RESET_CRC(hspi);
 80007da:	681a      	ldr	r2, [r3, #0]
 80007dc:	f422 5200 	bic.w	r2, r2, #8192	@ 0x2000
 80007e0:	601a      	str	r2, [r3, #0]
 80007e2:	681a      	ldr	r2, [r3, #0]
 80007e4:	f442 5200 	orr.w	r2, r2, #8192	@ 0x2000
 80007e8:	601a      	str	r2, [r3, #0]
        hspi->State = HAL_SPI_STATE_READY;
 80007ea:	2301      	movs	r3, #1
        return HAL_TIMEOUT;
 80007ec:	2003      	movs	r0, #3
        hspi->State = HAL_SPI_STATE_READY;
 80007ee:	f885 305d 	strb.w	r3, [r5, #93]	@ 0x5d
        __HAL_UNLOCK(hspi);
 80007f2:	2300      	movs	r3, #0
 80007f4:	f885 305c 	strb.w	r3, [r5, #92]	@ 0x5c
      }
    }
  }

  return HAL_OK;
}
 80007f8:	b003      	add	sp, #12
 80007fa:	bdf0      	pop	{r4, r5, r6, r7, pc}
      if (count == 0U)
 80007fc:	9b01      	ldr	r3, [sp, #4]
 80007fe:	b113      	cbz	r3, 8000806 <SPI_WaitFlagStateUntilTimeout.constprop.0+0x96>
        count--;
 8000800:	9b01      	ldr	r3, [sp, #4]
 8000802:	3b01      	subs	r3, #1
 8000804:	e7c4      	b.n	8000790 <SPI_WaitFlagStateUntilTimeout.constprop.0+0x20>
        tmp_timeout = 0U;
 8000806:	461c      	mov	r4, r3
 8000808:	e7c3      	b.n	8000792 <SPI_WaitFlagStateUntilTimeout.constprop.0+0x22>
 800080a:	bf00      	nop
 800080c:	20000008 	.word	0x20000008

08000810 <SPI_WaitFifoStateUntilTimeout.constprop.0>:
  * @param  State Fifo state to check
  * @param  Timeout Timeout duration
  * @param  Tickstart tick start value
  * @retval HAL status
  */
static HAL_StatusTypeDef SPI_WaitFifoStateUntilTimeout(SPI_HandleTypeDef *hspi, uint32_t Fifo, uint32_t State,
 8000810:	e92d 43f7 	stmdb	sp!, {r0, r1, r2, r4, r5, r6, r7, r8, r9, lr}
 8000814:	4617      	mov	r7, r2
 8000816:	461d      	mov	r5, r3
{
  __IO uint32_t count;
  uint32_t tmp_timeout;
  uint32_t tmp_tickstart;
  __IO const uint8_t  *ptmpreg8;
  __IO uint8_t  tmpreg8 = 0;
 8000818:	2300      	movs	r3, #0
static HAL_StatusTypeDef SPI_WaitFifoStateUntilTimeout(SPI_HandleTypeDef *hspi, uint32_t Fifo, uint32_t State,
 800081a:	4604      	mov	r4, r0

  /* Adjust Timeout value  in case of end of transfer */
  tmp_timeout = Timeout - (HAL_GetTick() - Tickstart);
 800081c:	443d      	add	r5, r7
static HAL_StatusTypeDef SPI_WaitFifoStateUntilTimeout(SPI_HandleTypeDef *hspi, uint32_t Fifo, uint32_t State,
 800081e:	460e      	mov	r6, r1
  __IO uint8_t  tmpreg8 = 0;
 8000820:	f88d 3003 	strb.w	r3, [sp, #3]
  tmp_timeout = Timeout - (HAL_GetTick() - Tickstart);
 8000824:	f7ff fda2 	bl	800036c <HAL_GetTick>
 8000828:	1a2d      	subs	r5, r5, r0
  tmp_tickstart = HAL_GetTick();
 800082a:	f7ff fd9f 	bl	800036c <HAL_GetTick>

  /* Initialize the 8bit temporary pointer */
  ptmpreg8 = (__IO uint8_t *)&hspi->Instance->DR;

  /* Calculate Timeout based on a software loop to avoid blocking issue if Systick is disabled */
  count = tmp_timeout * ((SystemCoreClock * 35U) >> 20U);
 800082e:	4b28      	ldr	r3, [pc, #160]	@ (80008d0 <SPI_WaitFifoStateUntilTimeout.constprop.0+0xc0>)
 8000830:	2223      	movs	r2, #35	@ 0x23
  tmp_tickstart = HAL_GetTick();
 8000832:	4680      	mov	r8, r0
  ptmpreg8 = (__IO uint8_t *)&hspi->Instance->DR;
 8000834:	f8d4 9000 	ldr.w	r9, [r4]
  count = tmp_timeout * ((SystemCoreClock * 35U) >> 20U);
 8000838:	681b      	ldr	r3, [r3, #0]
 800083a:	4353      	muls	r3, r2
 800083c:	0d1b      	lsrs	r3, r3, #20
 800083e:	436b      	muls	r3, r5
      {
        tmp_timeout = 0U;
      }
      else
      {
        count--;
 8000840:	9301      	str	r3, [sp, #4]
  while ((hspi->Instance->SR & Fifo) != State)
 8000842:	6822      	ldr	r2, [r4, #0]
 8000844:	6890      	ldr	r0, [r2, #8]
 8000846:	4030      	ands	r0, r6
 8000848:	d038      	beq.n	80008bc <SPI_WaitFifoStateUntilTimeout.constprop.0+0xac>
    if ((Fifo == SPI_SR_FRLVL) && (State == SPI_FRLVL_EMPTY))
 800084a:	f5b6 6fc0 	cmp.w	r6, #1536	@ 0x600
 800084e:	d106      	bne.n	800085e <SPI_WaitFifoStateUntilTimeout.constprop.0+0x4e>
      tmpreg8 = *ptmpreg8;
 8000850:	f899 300c 	ldrb.w	r3, [r9, #12]
 8000854:	b2db      	uxtb	r3, r3
 8000856:	f88d 3003 	strb.w	r3, [sp, #3]
      UNUSED(tmpreg8);
 800085a:	f89d 3003 	ldrb.w	r3, [sp, #3]
    if (Timeout != HAL_MAX_DELAY)
 800085e:	1c7b      	adds	r3, r7, #1
 8000860:	d0f0      	beq.n	8000844 <SPI_WaitFifoStateUntilTimeout.constprop.0+0x34>
      if (((HAL_GetTick() - tmp_tickstart) >= tmp_timeout) || (tmp_timeout == 0U))
 8000862:	f7ff fd83 	bl	800036c <HAL_GetTick>
 8000866:	eba0 0008 	sub.w	r0, r0, r8
 800086a:	42a8      	cmp	r0, r5
 800086c:	d329      	bcc.n	80008c2 <SPI_WaitFifoStateUntilTimeout.constprop.0+0xb2>
        __HAL_SPI_DISABLE_IT(hspi, (SPI_IT_TXE | SPI_IT_RXNE | SPI_IT_ERR));
 800086e:	6823      	ldr	r3, [r4, #0]
 8000870:	685a      	ldr	r2, [r3, #4]
 8000872:	f022 02e0 	bic.w	r2, r2, #224	@ 0xe0
 8000876:	605a      	str	r2, [r3, #4]
        if ((hspi->Init.Mode == SPI_MODE_MASTER) && ((hspi->Init.Direction == SPI_DIRECTION_1LINE)
 8000878:	6862      	ldr	r2, [r4, #4]
 800087a:	f5b2 7f82 	cmp.w	r2, #260	@ 0x104
 800087e:	d10a      	bne.n	8000896 <SPI_WaitFifoStateUntilTimeout.constprop.0+0x86>
 8000880:	68a2      	ldr	r2, [r4, #8]
 8000882:	f5b2 4f00 	cmp.w	r2, #32768	@ 0x8000
 8000886:	d002      	beq.n	800088e <SPI_WaitFifoStateUntilTimeout.constprop.0+0x7e>
                                                     || (hspi->Init.Direction == SPI_DIRECTION_2LINES_RXONLY)))
 8000888:	f5b2 6f80 	cmp.w	r2, #1024	@ 0x400
 800088c:	d103      	bne.n	8000896 <SPI_WaitFifoStateUntilTimeout.constprop.0+0x86>
          __HAL_SPI_DISABLE(hspi);
 800088e:	681a      	ldr	r2, [r3, #0]
 8000890:	f022 0240 	bic.w	r2, r2, #64	@ 0x40
 8000894:	601a      	str	r2, [r3, #0]
        if (hspi->Init.CRCCalculation == SPI_CRCCALCULATION_ENABLE)
 8000896:	6aa2      	ldr	r2, [r4, #40]	@ 0x28
 8000898:	f5b2 5f00 	cmp.w	r2, #8192	@ 0x2000
 800089c:	d107      	bne.n	80008ae <SPI_WaitFifoStateUntilTimeout.constprop.0+0x9e>
          SPI_RESET_CRC(hspi);
 800089e:	681a      	ldr	r2, [r3, #0]
 80008a0:	f422 5200 	bic.w	r2, r2, #8192	@ 0x2000
 80008a4:	601a      	str	r2, [r3, #0]
 80008a6:	681a      	ldr	r2, [r3, #0]
 80008a8:	f442 5200 	orr.w	r2, r2, #8192	@ 0x2000
 80008ac:	601a      	str	r2, [r3, #0]
        hspi->State = HAL_SPI_STATE_READY;
 80008ae:	2301      	movs	r3, #1
        return HAL_TIMEOUT;
 80008b0:	2003      	movs	r0, #3
        hspi->State = HAL_SPI_STATE_READY;
 80008b2:	f884 305d 	strb.w	r3, [r4, #93]	@ 0x5d
        __HAL_UNLOCK(hspi);
 80008b6:	2300      	movs	r3, #0
 80008b8:	f884 305c 	strb.w	r3, [r4, #92]	@ 0x5c
      }
    }
  }

  return HAL_OK;
}
 80008bc:	b003      	add	sp, #12
 80008be:	e8bd 83f0 	ldmia.w	sp!, {r4, r5, r6, r7, r8, r9, pc}
      if (count == 0U)
 80008c2:	9b01      	ldr	r3, [sp, #4]
 80008c4:	b113      	cbz	r3, 80008cc <SPI_WaitFifoStateUntilTimeout.constprop.0+0xbc>
        count--;
 80008c6:	9b01      	ldr	r3, [sp, #4]
 80008c8:	3b01      	subs	r3, #1
 80008ca:	e7b9      	b.n	8000840 <SPI_WaitFifoStateUntilTimeout.constprop.0+0x30>
        tmp_timeout = 0U;
 80008cc:	461d      	mov	r5, r3
 80008ce:	e7b8      	b.n	8000842 <SPI_WaitFifoStateUntilTimeout.constprop.0+0x32>
 80008d0:	20000008 	.word	0x20000008

080008d4 <SPI_EndRxTxTransaction>:
  * @param  Timeout Timeout duration
  * @param  Tickstart tick start value
  * @retval HAL status
  */
static HAL_StatusTypeDef SPI_EndRxTxTransaction(SPI_HandleTypeDef *hspi, uint32_t Timeout, uint32_t Tickstart)
{
 80008d4:	b573      	push	{r0, r1, r4, r5, r6, lr}
  __IO uint32_t count;

  /* Control if the TX fifo is empty */
  if (SPI_WaitFifoStateUntilTimeout(hspi, SPI_FLAG_FTLVL, SPI_FTLVL_EMPTY, Timeout, Tickstart) != HAL_OK)
 80008d6:	4613      	mov	r3, r2
{
 80008d8:	460d      	mov	r5, r1
 80008da:	4616      	mov	r6, r2
  if (SPI_WaitFifoStateUntilTimeout(hspi, SPI_FLAG_FTLVL, SPI_FTLVL_EMPTY, Timeout, Tickstart) != HAL_OK)
 80008dc:	460a      	mov	r2, r1
 80008de:	f44f 51c0 	mov.w	r1, #6144	@ 0x1800
{
 80008e2:	4604      	mov	r4, r0
  if (SPI_WaitFifoStateUntilTimeout(hspi, SPI_FLAG_FTLVL, SPI_FTLVL_EMPTY, Timeout, Tickstart) != HAL_OK)
 80008e4:	f7ff ff94 	bl	8000810 <SPI_WaitFifoStateUntilTimeout.constprop.0>
 80008e8:	b130      	cbz	r0, 80008f8 <SPI_EndRxTxTransaction+0x24>
  if (hspi->Init.Mode == SPI_MODE_MASTER)
  {
    /* Control the BSY flag */
    if (SPI_WaitFlagStateUntilTimeout(hspi, SPI_FLAG_BSY, RESET, Timeout, Tickstart) != HAL_OK)
    {
      SET_BIT(hspi->ErrorCode, HAL_SPI_ERROR_FLAG);
 80008ea:	6e23      	ldr	r3, [r4, #96]	@ 0x60
    return HAL_TIMEOUT;
 80008ec:	2003      	movs	r0, #3
      SET_BIT(hspi->ErrorCode, HAL_SPI_ERROR_FLAG);
 80008ee:	f043 0320 	orr.w	r3, r3, #32
 80008f2:	6623      	str	r3, [r4, #96]	@ 0x60
    SET_BIT(hspi->ErrorCode, HAL_SPI_ERROR_FLAG);
    return HAL_TIMEOUT;
  }

  return HAL_OK;
}
 80008f4:	b002      	add	sp, #8
 80008f6:	bd70      	pop	{r4, r5, r6, pc}
  count = SPI_BSY_FLAG_WORKAROUND_TIMEOUT * (SystemCoreClock / 24U / 1000000U);
 80008f8:	4b14      	ldr	r3, [pc, #80]	@ (800094c <SPI_EndRxTxTransaction+0x78>)
 80008fa:	4a15      	ldr	r2, [pc, #84]	@ (8000950 <SPI_EndRxTxTransaction+0x7c>)
 80008fc:	681b      	ldr	r3, [r3, #0]
 80008fe:	fbb3 f3f2 	udiv	r3, r3, r2
 8000902:	f44f 727a 	mov.w	r2, #1000	@ 0x3e8
 8000906:	4353      	muls	r3, r2
 8000908:	9301      	str	r3, [sp, #4]
  if (hspi->Init.Mode == SPI_MODE_MASTER)
 800090a:	6863      	ldr	r3, [r4, #4]
 800090c:	f5b3 7f82 	cmp.w	r3, #260	@ 0x104
 8000910:	d110      	bne.n	8000934 <SPI_EndRxTxTransaction+0x60>
    if (SPI_WaitFlagStateUntilTimeout(hspi, SPI_FLAG_BSY, RESET, Timeout, Tickstart) != HAL_OK)
 8000912:	4632      	mov	r2, r6
 8000914:	4629      	mov	r1, r5
 8000916:	4620      	mov	r0, r4
 8000918:	f7ff ff2a 	bl	8000770 <SPI_WaitFlagStateUntilTimeout.constprop.0>
 800091c:	2800      	cmp	r0, #0
 800091e:	d1e4      	bne.n	80008ea <SPI_EndRxTxTransaction+0x16>
  if (SPI_WaitFifoStateUntilTimeout(hspi, SPI_FLAG_FRLVL, SPI_FRLVL_EMPTY, Timeout, Tickstart) != HAL_OK)
 8000920:	4633      	mov	r3, r6
 8000922:	462a      	mov	r2, r5
 8000924:	f44f 61c0 	mov.w	r1, #1536	@ 0x600
 8000928:	4620      	mov	r0, r4
 800092a:	f7ff ff71 	bl	8000810 <SPI_WaitFifoStateUntilTimeout.constprop.0>
 800092e:	2800      	cmp	r0, #0
 8000930:	d0e0      	beq.n	80008f4 <SPI_EndRxTxTransaction+0x20>
 8000932:	e7da      	b.n	80008ea <SPI_EndRxTxTransaction+0x16>
      if (count == 0U)
 8000934:	9b01      	ldr	r3, [sp, #4]
 8000936:	2b00      	cmp	r3, #0
 8000938:	d0f2      	beq.n	8000920 <SPI_EndRxTxTransaction+0x4c>
      count--;
 800093a:	9b01      	ldr	r3, [sp, #4]
 800093c:	3b01      	subs	r3, #1
 800093e:	9301      	str	r3, [sp, #4]
    } while (__HAL_SPI_GET_FLAG(hspi, SPI_FLAG_BSY) != RESET);
 8000940:	6823      	ldr	r3, [r4, #0]
 8000942:	689b      	ldr	r3, [r3, #8]
 8000944:	061b      	lsls	r3, r3, #24
 8000946:	d4f5      	bmi.n	8000934 <SPI_EndRxTxTransaction+0x60>
 8000948:	e7ea      	b.n	8000920 <SPI_EndRxTxTransaction+0x4c>
 800094a:	bf00      	nop
 800094c:	20000008 	.word	0x20000008
 8000950:	016e3600 	.word	0x016e3600

08000954 <HAL_SPI_Init>:
{
 8000954:	b570      	push	{r4, r5, r6, lr}
  if (hspi == NULL)
 8000956:	4604      	mov	r4, r0
 8000958:	2800      	cmp	r0, #0
 800095a:	f000 813b 	beq.w	8000bd4 <HAL_SPI_Init+0x280>
  assert_param(IS_SPI_ALL_INSTANCE(hspi->Instance));
 800095e:	6803      	ldr	r3, [r0, #0]
 8000960:	4a9d      	ldr	r2, [pc, #628]	@ (8000bd8 <HAL_SPI_Init+0x284>)
 8000962:	4293      	cmp	r3, r2
 8000964:	d018      	beq.n	8000998 <HAL_SPI_Init+0x44>
 8000966:	f5a2 4278 	sub.w	r2, r2, #63488	@ 0xf800
 800096a:	4293      	cmp	r3, r2
 800096c:	d014      	beq.n	8000998 <HAL_SPI_Init+0x44>
 800096e:	f502 6280 	add.w	r2, r2, #1024	@ 0x400
 8000972:	4293      	cmp	r3, r2
 8000974:	d010      	beq.n	8000998 <HAL_SPI_Init+0x44>
 8000976:	f502 4278 	add.w	r2, r2, #63488	@ 0xf800
 800097a:	4293      	cmp	r3, r2
 800097c:	d00c      	beq.n	8000998 <HAL_SPI_Init+0x44>
 800097e:	f502 52e0 	add.w	r2, r2, #7168	@ 0x1c00
 8000982:	4293      	cmp	r3, r2
 8000984:	d008      	beq.n	8000998 <HAL_SPI_Init+0x44>
 8000986:	f502 6280 	add.w	r2, r2, #1024	@ 0x400
 800098a:	4293      	cmp	r3, r2
 800098c:	d004      	beq.n	8000998 <HAL_SPI_Init+0x44>
 800098e:	f44f 71a4 	mov.w	r1, #328	@ 0x148
 8000992:	4892      	ldr	r0, [pc, #584]	@ (8000bdc <HAL_SPI_Init+0x288>)
 8000994:	f7ff fca4 	bl	80002e0 <assert_failed>
  assert_param(IS_SPI_MODE(hspi->Init.Mode));
 8000998:	6863      	ldr	r3, [r4, #4]
 800099a:	b13b      	cbz	r3, 80009ac <HAL_SPI_Init+0x58>
 800099c:	f5b3 7f82 	cmp.w	r3, #260	@ 0x104
 80009a0:	d004      	beq.n	80009ac <HAL_SPI_Init+0x58>
 80009a2:	f240 1149 	movw	r1, #329	@ 0x149
 80009a6:	488d      	ldr	r0, [pc, #564]	@ (8000bdc <HAL_SPI_Init+0x288>)
 80009a8:	f7ff fc9a 	bl	80002e0 <assert_failed>
  assert_param(IS_SPI_DIRECTION(hspi->Init.Direction));
 80009ac:	68a3      	ldr	r3, [r4, #8]
 80009ae:	f433 6280 	bics.w	r2, r3, #1024	@ 0x400
 80009b2:	d007      	beq.n	80009c4 <HAL_SPI_Init+0x70>
 80009b4:	f5b3 4f00 	cmp.w	r3, #32768	@ 0x8000
 80009b8:	d004      	beq.n	80009c4 <HAL_SPI_Init+0x70>
 80009ba:	f44f 71a5 	mov.w	r1, #330	@ 0x14a
 80009be:	4887      	ldr	r0, [pc, #540]	@ (8000bdc <HAL_SPI_Init+0x288>)
 80009c0:	f7ff fc8e 	bl	80002e0 <assert_failed>
  assert_param(IS_SPI_DATASIZE(hspi->Init.DataSize));
 80009c4:	68e3      	ldr	r3, [r4, #12]
 80009c6:	f5b3 6f70 	cmp.w	r3, #3840	@ 0xf00
 80009ca:	d018      	beq.n	80009fe <HAL_SPI_Init+0xaa>
 80009cc:	f423 6200 	bic.w	r2, r3, #2048	@ 0x800
 80009d0:	f5b2 6fc0 	cmp.w	r2, #1536	@ 0x600
 80009d4:	d013      	beq.n	80009fe <HAL_SPI_Init+0xaa>
 80009d6:	f423 6210 	bic.w	r2, r3, #2304	@ 0x900
 80009da:	f5b2 6f80 	cmp.w	r2, #1024	@ 0x400
 80009de:	d00e      	beq.n	80009fe <HAL_SPI_Init+0xaa>
 80009e0:	f423 7240 	bic.w	r2, r3, #768	@ 0x300
 80009e4:	f5b2 6f00 	cmp.w	r2, #2048	@ 0x800
 80009e8:	d009      	beq.n	80009fe <HAL_SPI_Init+0xaa>
 80009ea:	f423 6380 	bic.w	r3, r3, #1024	@ 0x400
 80009ee:	f5b3 7f40 	cmp.w	r3, #768	@ 0x300
 80009f2:	d004      	beq.n	80009fe <HAL_SPI_Init+0xaa>
 80009f4:	f240 114b 	movw	r1, #331	@ 0x14b
 80009f8:	4878      	ldr	r0, [pc, #480]	@ (8000bdc <HAL_SPI_Init+0x288>)
 80009fa:	f7ff fc71 	bl	80002e0 <assert_failed>
  assert_param(IS_SPI_NSS(hspi->Init.NSS));
 80009fe:	69a3      	ldr	r3, [r4, #24]
 8000a00:	f433 7200 	bics.w	r2, r3, #512	@ 0x200
 8000a04:	d007      	beq.n	8000a16 <HAL_SPI_Init+0xc2>
 8000a06:	f5b3 2f80 	cmp.w	r3, #262144	@ 0x40000
 8000a0a:	d004      	beq.n	8000a16 <HAL_SPI_Init+0xc2>
 8000a0c:	f44f 71a6 	mov.w	r1, #332	@ 0x14c
 8000a10:	4872      	ldr	r0, [pc, #456]	@ (8000bdc <HAL_SPI_Init+0x288>)
 8000a12:	f7ff fc65 	bl	80002e0 <assert_failed>
  assert_param(IS_SPI_NSSP(hspi->Init.NSSPMode));
 8000a16:	6b63      	ldr	r3, [r4, #52]	@ 0x34
 8000a18:	f033 0308 	bics.w	r3, r3, #8
 8000a1c:	d004      	beq.n	8000a28 <HAL_SPI_Init+0xd4>
 8000a1e:	f240 114d 	movw	r1, #333	@ 0x14d
 8000a22:	486e      	ldr	r0, [pc, #440]	@ (8000bdc <HAL_SPI_Init+0x288>)
 8000a24:	f7ff fc5c 	bl	80002e0 <assert_failed>
  assert_param(IS_SPI_BAUDRATE_PRESCALER(hspi->Init.BaudRatePrescaler));
 8000a28:	69e3      	ldr	r3, [r4, #28]
 8000a2a:	b1a3      	cbz	r3, 8000a56 <HAL_SPI_Init+0x102>
 8000a2c:	2b18      	cmp	r3, #24
 8000a2e:	d809      	bhi.n	8000a44 <HAL_SPI_Init+0xf0>
 8000a30:	2b07      	cmp	r3, #7
 8000a32:	d805      	bhi.n	8000a40 <HAL_SPI_Init+0xec>
 8000a34:	f44f 71a7 	mov.w	r1, #334	@ 0x14e
 8000a38:	4868      	ldr	r0, [pc, #416]	@ (8000bdc <HAL_SPI_Init+0x288>)
 8000a3a:	f7ff fc51 	bl	80002e0 <assert_failed>
 8000a3e:	e00a      	b.n	8000a56 <HAL_SPI_Init+0x102>
 8000a40:	4a67      	ldr	r2, [pc, #412]	@ (8000be0 <HAL_SPI_Init+0x28c>)
 8000a42:	e004      	b.n	8000a4e <HAL_SPI_Init+0xfa>
 8000a44:	3b20      	subs	r3, #32
 8000a46:	2b18      	cmp	r3, #24
 8000a48:	d8f4      	bhi.n	8000a34 <HAL_SPI_Init+0xe0>
 8000a4a:	f04f 3201 	mov.w	r2, #16843009	@ 0x1010101
 8000a4e:	fa22 f303 	lsr.w	r3, r2, r3
 8000a52:	07d9      	lsls	r1, r3, #31
 8000a54:	d5ee      	bpl.n	8000a34 <HAL_SPI_Init+0xe0>
  assert_param(IS_SPI_FIRST_BIT(hspi->Init.FirstBit));
 8000a56:	6a23      	ldr	r3, [r4, #32]
 8000a58:	f033 0380 	bics.w	r3, r3, #128	@ 0x80
 8000a5c:	d004      	beq.n	8000a68 <HAL_SPI_Init+0x114>
 8000a5e:	f240 114f 	movw	r1, #335	@ 0x14f
 8000a62:	485e      	ldr	r0, [pc, #376]	@ (8000bdc <HAL_SPI_Init+0x288>)
 8000a64:	f7ff fc3c 	bl	80002e0 <assert_failed>
  assert_param(IS_SPI_TIMODE(hspi->Init.TIMode));
 8000a68:	6a63      	ldr	r3, [r4, #36]	@ 0x24
 8000a6a:	b9e3      	cbnz	r3, 8000aa6 <HAL_SPI_Init+0x152>
    assert_param(IS_SPI_CPOL(hspi->Init.CLKPolarity));
 8000a6c:	6923      	ldr	r3, [r4, #16]
 8000a6e:	f033 0302 	bics.w	r3, r3, #2
 8000a72:	d130      	bne.n	8000ad6 <HAL_SPI_Init+0x182>
    assert_param(IS_SPI_CPHA(hspi->Init.CLKPhase));
 8000a74:	6963      	ldr	r3, [r4, #20]
 8000a76:	2b01      	cmp	r3, #1
 8000a78:	d904      	bls.n	8000a84 <HAL_SPI_Init+0x130>
 8000a7a:	f44f 71aa 	mov.w	r1, #340	@ 0x154
 8000a7e:	4857      	ldr	r0, [pc, #348]	@ (8000bdc <HAL_SPI_Init+0x288>)
 8000a80:	f7ff fc2e 	bl	80002e0 <assert_failed>
    if (hspi->Init.Mode == SPI_MODE_MASTER)
 8000a84:	6863      	ldr	r3, [r4, #4]
 8000a86:	f5b3 7f82 	cmp.w	r3, #260	@ 0x104
 8000a8a:	f040 808e 	bne.w	8000baa <HAL_SPI_Init+0x256>
      assert_param(IS_SPI_BAUDRATE_PRESCALER(hspi->Init.BaudRatePrescaler));
 8000a8e:	69e3      	ldr	r3, [r4, #28]
 8000a90:	b393      	cbz	r3, 8000af8 <HAL_SPI_Init+0x1a4>
 8000a92:	2b18      	cmp	r3, #24
 8000a94:	d827      	bhi.n	8000ae6 <HAL_SPI_Init+0x192>
 8000a96:	2b07      	cmp	r3, #7
 8000a98:	d823      	bhi.n	8000ae2 <HAL_SPI_Init+0x18e>
 8000a9a:	f44f 71ac 	mov.w	r1, #344	@ 0x158
 8000a9e:	484f      	ldr	r0, [pc, #316]	@ (8000bdc <HAL_SPI_Init+0x288>)
 8000aa0:	f7ff fc1e 	bl	80002e0 <assert_failed>
 8000aa4:	e028      	b.n	8000af8 <HAL_SPI_Init+0x1a4>
  assert_param(IS_SPI_TIMODE(hspi->Init.TIMode));
 8000aa6:	2b10      	cmp	r3, #16
 8000aa8:	d007      	beq.n	8000aba <HAL_SPI_Init+0x166>
 8000aaa:	f44f 71a8 	mov.w	r1, #336	@ 0x150
 8000aae:	484b      	ldr	r0, [pc, #300]	@ (8000bdc <HAL_SPI_Init+0x288>)
 8000ab0:	f7ff fc16 	bl	80002e0 <assert_failed>
  if (hspi->Init.TIMode == SPI_TIMODE_DISABLE)
 8000ab4:	6a63      	ldr	r3, [r4, #36]	@ 0x24
 8000ab6:	2b00      	cmp	r3, #0
 8000ab8:	d0d8      	beq.n	8000a6c <HAL_SPI_Init+0x118>
    assert_param(IS_SPI_BAUDRATE_PRESCALER(hspi->Init.BaudRatePrescaler));
 8000aba:	69e3      	ldr	r3, [r4, #28]
 8000abc:	2b00      	cmp	r3, #0
 8000abe:	f000 8082 	beq.w	8000bc6 <HAL_SPI_Init+0x272>
 8000ac2:	2b18      	cmp	r3, #24
 8000ac4:	d876      	bhi.n	8000bb4 <HAL_SPI_Init+0x260>
 8000ac6:	2b07      	cmp	r3, #7
 8000ac8:	d872      	bhi.n	8000bb0 <HAL_SPI_Init+0x25c>
 8000aca:	f44f 71b1 	mov.w	r1, #354	@ 0x162
 8000ace:	4843      	ldr	r0, [pc, #268]	@ (8000bdc <HAL_SPI_Init+0x288>)
 8000ad0:	f7ff fc06 	bl	80002e0 <assert_failed>
 8000ad4:	e077      	b.n	8000bc6 <HAL_SPI_Init+0x272>
    assert_param(IS_SPI_CPOL(hspi->Init.CLKPolarity));
 8000ad6:	f240 1153 	movw	r1, #339	@ 0x153
 8000ada:	4840      	ldr	r0, [pc, #256]	@ (8000bdc <HAL_SPI_Init+0x288>)
 8000adc:	f7ff fc00 	bl	80002e0 <assert_failed>
 8000ae0:	e7c8      	b.n	8000a74 <HAL_SPI_Init+0x120>
 8000ae2:	4a3f      	ldr	r2, [pc, #252]	@ (8000be0 <HAL_SPI_Init+0x28c>)
 8000ae4:	e004      	b.n	8000af0 <HAL_SPI_Init+0x19c>
 8000ae6:	3b20      	subs	r3, #32
 8000ae8:	2b18      	cmp	r3, #24
 8000aea:	d8d6      	bhi.n	8000a9a <HAL_SPI_Init+0x146>
 8000aec:	f04f 3201 	mov.w	r2, #16843009	@ 0x1010101
 8000af0:	fa22 f303 	lsr.w	r3, r2, r3
 8000af4:	07da      	lsls	r2, r3, #31
 8000af6:	d5d0      	bpl.n	8000a9a <HAL_SPI_Init+0x146>
  hspi->Init.CRCCalculation = SPI_CRCCALCULATION_DISABLE;
 8000af8:	2300      	movs	r3, #0
 8000afa:	62a3      	str	r3, [r4, #40]	@ 0x28
  if (hspi->State == HAL_SPI_STATE_RESET)
 8000afc:	f894 305d 	ldrb.w	r3, [r4, #93]	@ 0x5d
 8000b00:	f003 02ff 	and.w	r2, r3, #255	@ 0xff
 8000b04:	b923      	cbnz	r3, 8000b10 <HAL_SPI_Init+0x1bc>
    HAL_SPI_MspInit(hspi);
 8000b06:	4620      	mov	r0, r4
    hspi->Lock = HAL_UNLOCKED;
 8000b08:	f884 205c 	strb.w	r2, [r4, #92]	@ 0x5c
    HAL_SPI_MspInit(hspi);
 8000b0c:	f001 f9b0 	bl	8001e70 <HAL_SPI_MspInit>
  hspi->State = HAL_SPI_STATE_BUSY;
 8000b10:	2302      	movs	r3, #2
  __HAL_SPI_DISABLE(hspi);
 8000b12:	6822      	ldr	r2, [r4, #0]
  if (hspi->Init.DataSize > SPI_DATASIZE_8BIT)
 8000b14:	68e0      	ldr	r0, [r4, #12]
  hspi->State = HAL_SPI_STATE_BUSY;
 8000b16:	f884 305d 	strb.w	r3, [r4, #93]	@ 0x5d
  __HAL_SPI_DISABLE(hspi);
 8000b1a:	6813      	ldr	r3, [r2, #0]
  if (hspi->Init.DataSize > SPI_DATASIZE_8BIT)
 8000b1c:	f5b0 6fe0 	cmp.w	r0, #1792	@ 0x700
  __HAL_SPI_DISABLE(hspi);
 8000b20:	f023 0340 	bic.w	r3, r3, #64	@ 0x40
 8000b24:	6013      	str	r3, [r2, #0]
  if (hspi->Init.DataSize > SPI_DATASIZE_8BIT)
 8000b26:	f04f 0300 	mov.w	r3, #0
 8000b2a:	d950      	bls.n	8000bce <HAL_SPI_Init+0x27a>
  if ((hspi->Init.DataSize != SPI_DATASIZE_16BIT) && (hspi->Init.DataSize != SPI_DATASIZE_8BIT))
 8000b2c:	461d      	mov	r5, r3
 8000b2e:	f5b0 6f70 	cmp.w	r0, #3840	@ 0xf00
    hspi->Init.CRCCalculation = SPI_CRCCALCULATION_DISABLE;
 8000b32:	bf18      	it	ne
 8000b34:	62a3      	strne	r3, [r4, #40]	@ 0x28
  WRITE_REG(hspi->Instance->CR2, (((hspi->Init.NSS >> 16U) & SPI_CR2_SSOE) |
 8000b36:	f400 6070 	and.w	r0, r0, #3840	@ 0xf00
  WRITE_REG(hspi->Instance->CR1, ((hspi->Init.Mode & (SPI_CR1_MSTR | SPI_CR1_SSI)) |
 8000b3a:	6863      	ldr	r3, [r4, #4]
 8000b3c:	68a6      	ldr	r6, [r4, #8]
 8000b3e:	f403 7382 	and.w	r3, r3, #260	@ 0x104
 8000b42:	69a1      	ldr	r1, [r4, #24]
 8000b44:	f406 4604 	and.w	r6, r6, #33792	@ 0x8400
 8000b48:	4333      	orrs	r3, r6
 8000b4a:	6926      	ldr	r6, [r4, #16]
 8000b4c:	f006 0602 	and.w	r6, r6, #2
 8000b50:	4333      	orrs	r3, r6
 8000b52:	6966      	ldr	r6, [r4, #20]
 8000b54:	f006 0601 	and.w	r6, r6, #1
 8000b58:	4333      	orrs	r3, r6
 8000b5a:	f401 7600 	and.w	r6, r1, #512	@ 0x200
  WRITE_REG(hspi->Instance->CR2, (((hspi->Init.NSS >> 16U) & SPI_CR2_SSOE) |
 8000b5e:	0c09      	lsrs	r1, r1, #16
  WRITE_REG(hspi->Instance->CR1, ((hspi->Init.Mode & (SPI_CR1_MSTR | SPI_CR1_SSI)) |
 8000b60:	4333      	orrs	r3, r6
 8000b62:	69e6      	ldr	r6, [r4, #28]
  WRITE_REG(hspi->Instance->CR2, (((hspi->Init.NSS >> 16U) & SPI_CR2_SSOE) |
 8000b64:	f001 0104 	and.w	r1, r1, #4
  WRITE_REG(hspi->Instance->CR1, ((hspi->Init.Mode & (SPI_CR1_MSTR | SPI_CR1_SSI)) |
 8000b68:	f006 0638 	and.w	r6, r6, #56	@ 0x38
 8000b6c:	4333      	orrs	r3, r6
 8000b6e:	6a26      	ldr	r6, [r4, #32]
 8000b70:	f006 0680 	and.w	r6, r6, #128	@ 0x80
 8000b74:	4333      	orrs	r3, r6
 8000b76:	6aa6      	ldr	r6, [r4, #40]	@ 0x28
 8000b78:	f406 5600 	and.w	r6, r6, #8192	@ 0x2000
 8000b7c:	4333      	orrs	r3, r6
  WRITE_REG(hspi->Instance->CR2, (((hspi->Init.NSS >> 16U) & SPI_CR2_SSOE) |
 8000b7e:	6b66      	ldr	r6, [r4, #52]	@ 0x34
  WRITE_REG(hspi->Instance->CR1, ((hspi->Init.Mode & (SPI_CR1_MSTR | SPI_CR1_SSI)) |
 8000b80:	6013      	str	r3, [r2, #0]
  WRITE_REG(hspi->Instance->CR2, (((hspi->Init.NSS >> 16U) & SPI_CR2_SSOE) |
 8000b82:	f006 0608 	and.w	r6, r6, #8
 8000b86:	6a63      	ldr	r3, [r4, #36]	@ 0x24
 8000b88:	f003 0310 	and.w	r3, r3, #16
 8000b8c:	4333      	orrs	r3, r6
 8000b8e:	4303      	orrs	r3, r0
  hspi->ErrorCode = HAL_SPI_ERROR_NONE;
 8000b90:	2000      	movs	r0, #0
  WRITE_REG(hspi->Instance->CR2, (((hspi->Init.NSS >> 16U) & SPI_CR2_SSOE) |
 8000b92:	430b      	orrs	r3, r1
 8000b94:	432b      	orrs	r3, r5
 8000b96:	6053      	str	r3, [r2, #4]
  CLEAR_BIT(hspi->Instance->I2SCFGR, SPI_I2SCFGR_I2SMOD);
 8000b98:	69d3      	ldr	r3, [r2, #28]
 8000b9a:	f423 6300 	bic.w	r3, r3, #2048	@ 0x800
 8000b9e:	61d3      	str	r3, [r2, #28]
  hspi->State     = HAL_SPI_STATE_READY;
 8000ba0:	2301      	movs	r3, #1
  hspi->ErrorCode = HAL_SPI_ERROR_NONE;
 8000ba2:	6620      	str	r0, [r4, #96]	@ 0x60
  hspi->State     = HAL_SPI_STATE_READY;
 8000ba4:	f884 305d 	strb.w	r3, [r4, #93]	@ 0x5d
}
 8000ba8:	bd70      	pop	{r4, r5, r6, pc}
      hspi->Init.BaudRatePrescaler = SPI_BAUDRATEPRESCALER_2;
 8000baa:	2300      	movs	r3, #0
 8000bac:	61e3      	str	r3, [r4, #28]
 8000bae:	e7a3      	b.n	8000af8 <HAL_SPI_Init+0x1a4>
 8000bb0:	4a0b      	ldr	r2, [pc, #44]	@ (8000be0 <HAL_SPI_Init+0x28c>)
 8000bb2:	e004      	b.n	8000bbe <HAL_SPI_Init+0x26a>
 8000bb4:	3b20      	subs	r3, #32
 8000bb6:	2b18      	cmp	r3, #24
 8000bb8:	d887      	bhi.n	8000aca <HAL_SPI_Init+0x176>
 8000bba:	f04f 3201 	mov.w	r2, #16843009	@ 0x1010101
 8000bbe:	fa22 f303 	lsr.w	r3, r2, r3
 8000bc2:	07db      	lsls	r3, r3, #31
 8000bc4:	d581      	bpl.n	8000aca <HAL_SPI_Init+0x176>
    hspi->Init.CLKPolarity = SPI_POLARITY_LOW;
 8000bc6:	2300      	movs	r3, #0
    hspi->Init.CLKPhase    = SPI_PHASE_1EDGE;
 8000bc8:	e9c4 3304 	strd	r3, r3, [r4, #16]
 8000bcc:	e794      	b.n	8000af8 <HAL_SPI_Init+0x1a4>
 8000bce:	f44f 5580 	mov.w	r5, #4096	@ 0x1000
 8000bd2:	e7ae      	b.n	8000b32 <HAL_SPI_Init+0x1de>
    return HAL_ERROR;
 8000bd4:	2001      	movs	r0, #1
 8000bd6:	e7e7      	b.n	8000ba8 <HAL_SPI_Init+0x254>
 8000bd8:	40013000 	.word	0x40013000
 8000bdc:	08002160 	.word	0x08002160
 8000be0:	01010100 	.word	0x01010100

08000be4 <HAL_SPI_Transmit>:
{
 8000be4:	e92d 43f7 	stmdb	sp!, {r0, r1, r2, r4, r5, r6, r7, r8, r9, lr}
 8000be8:	461f      	mov	r7, r3
  assert_param(IS_SPI_DIRECTION_2LINES_OR_1LINE(hspi->Init.Direction));
 8000bea:	6883      	ldr	r3, [r0, #8]
{
 8000bec:	4604      	mov	r4, r0
 8000bee:	460d      	mov	r5, r1
  assert_param(IS_SPI_DIRECTION_2LINES_OR_1LINE(hspi->Init.Direction));
 8000bf0:	f433 4300 	bics.w	r3, r3, #32768	@ 0x8000
{
 8000bf4:	4690      	mov	r8, r2
  assert_param(IS_SPI_DIRECTION_2LINES_OR_1LINE(hspi->Init.Direction));
 8000bf6:	d004      	beq.n	8000c02 <HAL_SPI_Transmit+0x1e>
 8000bf8:	f240 313e 	movw	r1, #830	@ 0x33e
 8000bfc:	4861      	ldr	r0, [pc, #388]	@ (8000d84 <HAL_SPI_Transmit+0x1a0>)
 8000bfe:	f7ff fb6f 	bl	80002e0 <assert_failed>
  tickstart = HAL_GetTick();
 8000c02:	f7ff fbb3 	bl	800036c <HAL_GetTick>
  if (hspi->State != HAL_SPI_STATE_READY)
 8000c06:	f894 305d 	ldrb.w	r3, [r4, #93]	@ 0x5d
  tickstart = HAL_GetTick();
 8000c0a:	4681      	mov	r9, r0
  if (hspi->State != HAL_SPI_STATE_READY)
 8000c0c:	2b01      	cmp	r3, #1
 8000c0e:	b2d8      	uxtb	r0, r3
 8000c10:	f040 80b5 	bne.w	8000d7e <HAL_SPI_Transmit+0x19a>
  if ((pData == NULL) || (Size == 0U))
 8000c14:	2d00      	cmp	r5, #0
 8000c16:	d076      	beq.n	8000d06 <HAL_SPI_Transmit+0x122>
 8000c18:	f1b8 0f00 	cmp.w	r8, #0
 8000c1c:	d073      	beq.n	8000d06 <HAL_SPI_Transmit+0x122>
  __HAL_LOCK(hspi);
 8000c1e:	f894 305c 	ldrb.w	r3, [r4, #92]	@ 0x5c
 8000c22:	2b01      	cmp	r3, #1
 8000c24:	f000 80ab 	beq.w	8000d7e <HAL_SPI_Transmit+0x19a>
  hspi->State       = HAL_SPI_STATE_BUSY_TX;
 8000c28:	2303      	movs	r3, #3
    __HAL_SPI_DISABLE(hspi);
 8000c2a:	6826      	ldr	r6, [r4, #0]
  __HAL_LOCK(hspi);
 8000c2c:	f884 005c 	strb.w	r0, [r4, #92]	@ 0x5c
  hspi->State       = HAL_SPI_STATE_BUSY_TX;
 8000c30:	f884 305d 	strb.w	r3, [r4, #93]	@ 0x5d
  hspi->ErrorCode   = HAL_SPI_ERROR_NONE;
 8000c34:	2300      	movs	r3, #0
  hspi->pTxBuffPtr  = (const uint8_t *)pData;
 8000c36:	63a5      	str	r5, [r4, #56]	@ 0x38
  hspi->ErrorCode   = HAL_SPI_ERROR_NONE;
 8000c38:	6623      	str	r3, [r4, #96]	@ 0x60
  hspi->pRxBuffPtr  = (uint8_t *)NULL;
 8000c3a:	6423      	str	r3, [r4, #64]	@ 0x40
  hspi->TxXferCount = Size;
 8000c3c:	f8a4 803e 	strh.w	r8, [r4, #62]	@ 0x3e
  hspi->RxXferSize  = 0U;
 8000c40:	f8a4 3044 	strh.w	r3, [r4, #68]	@ 0x44
  hspi->RxXferCount = 0U;
 8000c44:	f8a4 3046 	strh.w	r3, [r4, #70]	@ 0x46
  hspi->TxXferSize  = Size;
 8000c48:	f8a4 803c 	strh.w	r8, [r4, #60]	@ 0x3c
  hspi->RxISR       = NULL;
 8000c4c:	e9c4 3313 	strd	r3, r3, [r4, #76]	@ 0x4c
  if (hspi->Init.Direction == SPI_DIRECTION_1LINE)
 8000c50:	68a3      	ldr	r3, [r4, #8]
 8000c52:	f5b3 4f00 	cmp.w	r3, #32768	@ 0x8000
 8000c56:	d107      	bne.n	8000c68 <HAL_SPI_Transmit+0x84>
    __HAL_SPI_DISABLE(hspi);
 8000c58:	6833      	ldr	r3, [r6, #0]
 8000c5a:	f023 0340 	bic.w	r3, r3, #64	@ 0x40
 8000c5e:	6033      	str	r3, [r6, #0]
    SPI_1LINE_TX(hspi);
 8000c60:	6833      	ldr	r3, [r6, #0]
 8000c62:	f443 4380 	orr.w	r3, r3, #16384	@ 0x4000
 8000c66:	6033      	str	r3, [r6, #0]
  if ((hspi->Instance->CR1 & SPI_CR1_SPE) != SPI_CR1_SPE)
 8000c68:	6833      	ldr	r3, [r6, #0]
 8000c6a:	065b      	lsls	r3, r3, #25
 8000c6c:	d403      	bmi.n	8000c76 <HAL_SPI_Transmit+0x92>
    __HAL_SPI_ENABLE(hspi);
 8000c6e:	6833      	ldr	r3, [r6, #0]
 8000c70:	f043 0340 	orr.w	r3, r3, #64	@ 0x40
 8000c74:	6033      	str	r3, [r6, #0]
  if (hspi->Init.DataSize > SPI_DATASIZE_8BIT)
 8000c76:	68e2      	ldr	r2, [r4, #12]
    if ((hspi->Init.Mode == SPI_MODE_SLAVE) || (initial_TxXferCount == 0x01U))
 8000c78:	6863      	ldr	r3, [r4, #4]
  if (hspi->Init.DataSize > SPI_DATASIZE_8BIT)
 8000c7a:	f5b2 6fe0 	cmp.w	r2, #1792	@ 0x700
 8000c7e:	d945      	bls.n	8000d0c <HAL_SPI_Transmit+0x128>
    if ((hspi->Init.Mode == SPI_MODE_SLAVE) || (initial_TxXferCount == 0x01U))
 8000c80:	b113      	cbz	r3, 8000c88 <HAL_SPI_Transmit+0xa4>
 8000c82:	f1b8 0f01 	cmp.w	r8, #1
 8000c86:	d107      	bne.n	8000c98 <HAL_SPI_Transmit+0xb4>
      hspi->Instance->DR = *((const uint16_t *)hspi->pTxBuffPtr);
 8000c88:	f835 3b02 	ldrh.w	r3, [r5], #2
 8000c8c:	60f3      	str	r3, [r6, #12]
      hspi->pTxBuffPtr += sizeof(uint16_t);
 8000c8e:	63a5      	str	r5, [r4, #56]	@ 0x38
        hspi->TxXferCount--;
 8000c90:	8fe3      	ldrh	r3, [r4, #62]	@ 0x3e
 8000c92:	3b01      	subs	r3, #1
 8000c94:	b29b      	uxth	r3, r3
 8000c96:	87e3      	strh	r3, [r4, #62]	@ 0x3e
    while (hspi->TxXferCount > 0U)
 8000c98:	8fe3      	ldrh	r3, [r4, #62]	@ 0x3e
 8000c9a:	b29b      	uxth	r3, r3
 8000c9c:	b9d3      	cbnz	r3, 8000cd4 <HAL_SPI_Transmit+0xf0>
  if (SPI_EndRxTxTransaction(hspi, Timeout, tickstart) != HAL_OK)
 8000c9e:	464a      	mov	r2, r9
 8000ca0:	4639      	mov	r1, r7
 8000ca2:	4620      	mov	r0, r4
 8000ca4:	f7ff fe16 	bl	80008d4 <SPI_EndRxTxTransaction>
 8000ca8:	2800      	cmp	r0, #0
 8000caa:	d165      	bne.n	8000d78 <HAL_SPI_Transmit+0x194>
  if (hspi->Init.Direction == SPI_DIRECTION_2LINES)
 8000cac:	68a3      	ldr	r3, [r4, #8]
 8000cae:	b933      	cbnz	r3, 8000cbe <HAL_SPI_Transmit+0xda>
    __HAL_SPI_CLEAR_OVRFLAG(hspi);
 8000cb0:	9301      	str	r3, [sp, #4]
 8000cb2:	6823      	ldr	r3, [r4, #0]
 8000cb4:	68da      	ldr	r2, [r3, #12]
 8000cb6:	9201      	str	r2, [sp, #4]
 8000cb8:	689b      	ldr	r3, [r3, #8]
 8000cba:	9301      	str	r3, [sp, #4]
 8000cbc:	9b01      	ldr	r3, [sp, #4]
  hspi->State = HAL_SPI_STATE_READY;
 8000cbe:	2301      	movs	r3, #1
 8000cc0:	f884 305d 	strb.w	r3, [r4, #93]	@ 0x5d
  __HAL_UNLOCK(hspi);
 8000cc4:	2300      	movs	r3, #0
  if (hspi->ErrorCode != HAL_SPI_ERROR_NONE)
 8000cc6:	6e20      	ldr	r0, [r4, #96]	@ 0x60
  __HAL_UNLOCK(hspi);
 8000cc8:	f884 305c 	strb.w	r3, [r4, #92]	@ 0x5c
  if (hspi->ErrorCode != HAL_SPI_ERROR_NONE)
 8000ccc:	1ac0      	subs	r0, r0, r3
 8000cce:	bf18      	it	ne
 8000cd0:	2001      	movne	r0, #1
 8000cd2:	e018      	b.n	8000d06 <HAL_SPI_Transmit+0x122>
      if (__HAL_SPI_GET_FLAG(hspi, SPI_FLAG_TXE))
 8000cd4:	6822      	ldr	r2, [r4, #0]
 8000cd6:	6893      	ldr	r3, [r2, #8]
 8000cd8:	079d      	lsls	r5, r3, #30
 8000cda:	d505      	bpl.n	8000ce8 <HAL_SPI_Transmit+0x104>
        hspi->Instance->DR = *((const uint16_t *)hspi->pTxBuffPtr);
 8000cdc:	6ba3      	ldr	r3, [r4, #56]	@ 0x38
 8000cde:	f833 1b02 	ldrh.w	r1, [r3], #2
 8000ce2:	60d1      	str	r1, [r2, #12]
        hspi->pTxBuffPtr += sizeof(uint16_t);
 8000ce4:	63a3      	str	r3, [r4, #56]	@ 0x38
 8000ce6:	e7d3      	b.n	8000c90 <HAL_SPI_Transmit+0xac>
        if ((((HAL_GetTick() - tickstart) >=  Timeout) && (Timeout != HAL_MAX_DELAY)) || (Timeout == 0U))
 8000ce8:	f7ff fb40 	bl	800036c <HAL_GetTick>
 8000cec:	eba0 0009 	sub.w	r0, r0, r9
 8000cf0:	42b8      	cmp	r0, r7
 8000cf2:	d3d1      	bcc.n	8000c98 <HAL_SPI_Transmit+0xb4>
 8000cf4:	1c78      	adds	r0, r7, #1
 8000cf6:	d0cf      	beq.n	8000c98 <HAL_SPI_Transmit+0xb4>
          hspi->State = HAL_SPI_STATE_READY;
 8000cf8:	2301      	movs	r3, #1
          return HAL_TIMEOUT;
 8000cfa:	2003      	movs	r0, #3
          hspi->State = HAL_SPI_STATE_READY;
 8000cfc:	f884 305d 	strb.w	r3, [r4, #93]	@ 0x5d
          __HAL_UNLOCK(hspi);
 8000d00:	2300      	movs	r3, #0
 8000d02:	f884 305c 	strb.w	r3, [r4, #92]	@ 0x5c
}
 8000d06:	b003      	add	sp, #12
 8000d08:	e8bd 83f0 	ldmia.w	sp!, {r4, r5, r6, r7, r8, r9, pc}
    if ((hspi->Init.Mode == SPI_MODE_SLAVE) || (initial_TxXferCount == 0x01U))
 8000d0c:	b113      	cbz	r3, 8000d14 <HAL_SPI_Transmit+0x130>
 8000d0e:	f1b8 0f01 	cmp.w	r8, #1
 8000d12:	d113      	bne.n	8000d3c <HAL_SPI_Transmit+0x158>
      if (hspi->TxXferCount > 1U)
 8000d14:	8fe3      	ldrh	r3, [r4, #62]	@ 0x3e
 8000d16:	b29b      	uxth	r3, r3
 8000d18:	2b01      	cmp	r3, #1
 8000d1a:	d906      	bls.n	8000d2a <HAL_SPI_Transmit+0x146>
        hspi->Instance->DR = *((const uint16_t *)hspi->pTxBuffPtr);
 8000d1c:	f835 3b02 	ldrh.w	r3, [r5], #2
 8000d20:	60f3      	str	r3, [r6, #12]
        hspi->pTxBuffPtr += sizeof(uint16_t);
 8000d22:	63a5      	str	r5, [r4, #56]	@ 0x38
          hspi->TxXferCount -= 2U;
 8000d24:	8fe3      	ldrh	r3, [r4, #62]	@ 0x3e
 8000d26:	3b02      	subs	r3, #2
 8000d28:	e006      	b.n	8000d38 <HAL_SPI_Transmit+0x154>
        *((__IO uint8_t *)&hspi->Instance->DR) = *((const uint8_t *)hspi->pTxBuffPtr);
 8000d2a:	782b      	ldrb	r3, [r5, #0]
 8000d2c:	7333      	strb	r3, [r6, #12]
        hspi->pTxBuffPtr ++;
 8000d2e:	6ba3      	ldr	r3, [r4, #56]	@ 0x38
 8000d30:	3301      	adds	r3, #1
 8000d32:	63a3      	str	r3, [r4, #56]	@ 0x38
        hspi->TxXferCount--;
 8000d34:	8fe3      	ldrh	r3, [r4, #62]	@ 0x3e
 8000d36:	3b01      	subs	r3, #1
 8000d38:	b29b      	uxth	r3, r3
 8000d3a:	87e3      	strh	r3, [r4, #62]	@ 0x3e
    while (hspi->TxXferCount > 0U)
 8000d3c:	8fe3      	ldrh	r3, [r4, #62]	@ 0x3e
 8000d3e:	b29b      	uxth	r3, r3
 8000d40:	2b00      	cmp	r3, #0
 8000d42:	d0ac      	beq.n	8000c9e <HAL_SPI_Transmit+0xba>
      if (__HAL_SPI_GET_FLAG(hspi, SPI_FLAG_TXE))
 8000d44:	6822      	ldr	r2, [r4, #0]
 8000d46:	6893      	ldr	r3, [r2, #8]
 8000d48:	0799      	lsls	r1, r3, #30
 8000d4a:	d50c      	bpl.n	8000d66 <HAL_SPI_Transmit+0x182>
        if (hspi->TxXferCount > 1U)
 8000d4c:	8fe1      	ldrh	r1, [r4, #62]	@ 0x3e
          hspi->Instance->DR = *((const uint16_t *)hspi->pTxBuffPtr);
 8000d4e:	6ba3      	ldr	r3, [r4, #56]	@ 0x38
        if (hspi->TxXferCount > 1U)
 8000d50:	b289      	uxth	r1, r1
 8000d52:	2901      	cmp	r1, #1
 8000d54:	d904      	bls.n	8000d60 <HAL_SPI_Transmit+0x17c>
          hspi->Instance->DR = *((const uint16_t *)hspi->pTxBuffPtr);
 8000d56:	f833 1b02 	ldrh.w	r1, [r3], #2
 8000d5a:	60d1      	str	r1, [r2, #12]
          hspi->pTxBuffPtr += sizeof(uint16_t);
 8000d5c:	63a3      	str	r3, [r4, #56]	@ 0x38
 8000d5e:	e7e1      	b.n	8000d24 <HAL_SPI_Transmit+0x140>
          *((__IO uint8_t *)&hspi->Instance->DR) = *((const uint8_t *)hspi->pTxBuffPtr);
 8000d60:	781b      	ldrb	r3, [r3, #0]
 8000d62:	7313      	strb	r3, [r2, #12]
          hspi->pTxBuffPtr++;
 8000d64:	e7e3      	b.n	8000d2e <HAL_SPI_Transmit+0x14a>
        if ((((HAL_GetTick() - tickstart) >=  Timeout) && (Timeout != HAL_MAX_DELAY)) || (Timeout == 0U))
 8000d66:	f7ff fb01 	bl	800036c <HAL_GetTick>
 8000d6a:	eba0 0009 	sub.w	r0, r0, r9
 8000d6e:	42b8      	cmp	r0, r7
 8000d70:	d3e4      	bcc.n	8000d3c <HAL_SPI_Transmit+0x158>
 8000d72:	1c7b      	adds	r3, r7, #1
 8000d74:	d0e2      	beq.n	8000d3c <HAL_SPI_Transmit+0x158>
 8000d76:	e7bf      	b.n	8000cf8 <HAL_SPI_Transmit+0x114>
    hspi->ErrorCode = HAL_SPI_ERROR_FLAG;
 8000d78:	2320      	movs	r3, #32
 8000d7a:	6623      	str	r3, [r4, #96]	@ 0x60
 8000d7c:	e796      	b.n	8000cac <HAL_SPI_Transmit+0xc8>
    return HAL_BUSY;
 8000d7e:	2002      	movs	r0, #2
 8000d80:	e7c1      	b.n	8000d06 <HAL_SPI_Transmit+0x122>
 8000d82:	bf00      	nop
 8000d84:	08002160 	.word	0x08002160

08000d88 <vApplicationTickHook>:

/**
  Dummy implementation of the callback function vApplicationTickHook().
*/
#if (configUSE_TICK_HOOK == 1)
 __WEAK void vApplicationTickHook (void){}
 8000d88:	4770      	bx	lr

08000d8a <vListInsertEnd>:
}
/*-----------------------------------------------------------*/

void vListInsertEnd( List_t * const pxList, ListItem_t * const pxNewListItem )
{
ListItem_t * const pxIndex = pxList->pxIndex;
 8000d8a:	6843      	ldr	r3, [r0, #4]

	/* Insert a new list item into pxList, but rather than sort the list,
	makes the new list item the last item to be removed by a call to
	listGET_OWNER_OF_NEXT_ENTRY(). */
	pxNewListItem->pxNext = pxIndex;
	pxNewListItem->pxPrevious = pxIndex->pxPrevious;
 8000d8c:	689a      	ldr	r2, [r3, #8]
	pxNewListItem->pxNext = pxIndex;
 8000d8e:	604b      	str	r3, [r1, #4]
	pxNewListItem->pxPrevious = pxIndex->pxPrevious;
 8000d90:	608a      	str	r2, [r1, #8]

	/* Only used during decision coverage testing. */
	mtCOVERAGE_TEST_DELAY();

	pxIndex->pxPrevious->pxNext = pxNewListItem;
 8000d92:	6051      	str	r1, [r2, #4]
	pxIndex->pxPrevious = pxNewListItem;
 8000d94:	6099      	str	r1, [r3, #8]

	/* Remember which list the item is in. */
	pxNewListItem->pxContainer = pxList;

	( pxList->uxNumberOfItems )++;
 8000d96:	6803      	ldr	r3, [r0, #0]
	pxNewListItem->pxContainer = pxList;
 8000d98:	6108      	str	r0, [r1, #16]
	( pxList->uxNumberOfItems )++;
 8000d9a:	3301      	adds	r3, #1
 8000d9c:	6003      	str	r3, [r0, #0]
}
 8000d9e:	4770      	bx	lr

08000da0 <uxListRemove>:

UBaseType_t uxListRemove( ListItem_t * const pxItemToRemove )
{
/* The list item knows which list it is in.  Obtain the list from the list
item. */
List_t * const pxList = pxItemToRemove->pxContainer;
 8000da0:	6903      	ldr	r3, [r0, #16]

	pxItemToRemove->pxNext->pxPrevious = pxItemToRemove->pxPrevious;
 8000da2:	e9d0 1201 	ldrd	r1, r2, [r0, #4]
 8000da6:	608a      	str	r2, [r1, #8]
	pxItemToRemove->pxPrevious->pxNext = pxItemToRemove->pxNext;
 8000da8:	6051      	str	r1, [r2, #4]

	/* Only used during decision coverage testing. */
	mtCOVERAGE_TEST_DELAY();

	/* Make sure the index is left pointing to a valid item. */
	if( pxList->pxIndex == pxItemToRemove )
 8000daa:	6859      	ldr	r1, [r3, #4]
 8000dac:	4281      	cmp	r1, r0
	{
		pxList->pxIndex = pxItemToRemove->pxPrevious;
 8000dae:	bf08      	it	eq
 8000db0:	605a      	streq	r2, [r3, #4]
	else
	{
		mtCOVERAGE_TEST_MARKER();
	}

	pxItemToRemove->pxContainer = NULL;
 8000db2:	2200      	movs	r2, #0
 8000db4:	6102      	str	r2, [r0, #16]
	( pxList->uxNumberOfItems )--;
 8000db6:	681a      	ldr	r2, [r3, #0]
 8000db8:	3a01      	subs	r2, #1
 8000dba:	601a      	str	r2, [r3, #0]

	return pxList->uxNumberOfItems;
 8000dbc:	6818      	ldr	r0, [r3, #0]
}
 8000dbe:	4770      	bx	lr

08000dc0 <prvResetNextTaskUnblockTime>:

static void prvResetNextTaskUnblockTime( void )
{
TCB_t *pxTCB;

	if( listLIST_IS_EMPTY( pxDelayedTaskList ) != pdFALSE )
 8000dc0:	4a06      	ldr	r2, [pc, #24]	@ (8000ddc <prvResetNextTaskUnblockTime+0x1c>)
 8000dc2:	6813      	ldr	r3, [r2, #0]
 8000dc4:	6819      	ldr	r1, [r3, #0]
 8000dc6:	4b06      	ldr	r3, [pc, #24]	@ (8000de0 <prvResetNextTaskUnblockTime+0x20>)
 8000dc8:	b919      	cbnz	r1, 8000dd2 <prvResetNextTaskUnblockTime+0x12>
	{
		/* The new current delayed list is empty.  Set xNextTaskUnblockTime to
		the maximum possible value so it is	extremely unlikely that the
		if( xTickCount >= xNextTaskUnblockTime ) test will pass until
		there is an item in the delayed list. */
		xNextTaskUnblockTime = portMAX_DELAY;
 8000dca:	f04f 32ff 	mov.w	r2, #4294967295
		/* The new current delayed list is not empty, get the value of
		the item at the head of the delayed list.  This is the time at
		which the task at the head of the delayed list should be removed
		from the Blocked state. */
		( pxTCB ) = listGET_OWNER_OF_HEAD_ENTRY( pxDelayedTaskList ); /*lint !e9079 void * is used as this macro is used with timers and co-routines too.  Alignment is known to be fine as the type of the pointer stored and retrieved is the same. */
		xNextTaskUnblockTime = listGET_LIST_ITEM_VALUE( &( ( pxTCB )->xStateListItem ) );
 8000dce:	601a      	str	r2, [r3, #0]
	}
}
 8000dd0:	4770      	bx	lr
		( pxTCB ) = listGET_OWNER_OF_HEAD_ENTRY( pxDelayedTaskList ); /*lint !e9079 void * is used as this macro is used with timers and co-routines too.  Alignment is known to be fine as the type of the pointer stored and retrieved is the same. */
 8000dd2:	6812      	ldr	r2, [r2, #0]
 8000dd4:	68d2      	ldr	r2, [r2, #12]
		xNextTaskUnblockTime = listGET_LIST_ITEM_VALUE( &( ( pxTCB )->xStateListItem ) );
 8000dd6:	68d2      	ldr	r2, [r2, #12]
 8000dd8:	6852      	ldr	r2, [r2, #4]
 8000dda:	e7f8      	b.n	8000dce <prvResetNextTaskUnblockTime+0xe>
 8000ddc:	20000054 	.word	0x20000054
 8000de0:	20000034 	.word	0x20000034

08000de4 <xTaskIncrementTick>:
	if( uxSchedulerSuspended == ( UBaseType_t ) pdFALSE )
 8000de4:	4b44      	ldr	r3, [pc, #272]	@ (8000ef8 <xTaskIncrementTick+0x114>)
 8000de6:	681b      	ldr	r3, [r3, #0]
{
 8000de8:	e92d 4ff7 	stmdb	sp!, {r0, r1, r2, r4, r5, r6, r7, r8, r9, sl, fp, lr}
	if( uxSchedulerSuspended == ( UBaseType_t ) pdFALSE )
 8000dec:	2b00      	cmp	r3, #0
 8000dee:	d17b      	bne.n	8000ee8 <xTaskIncrementTick+0x104>
		const TickType_t xConstTickCount = xTickCount + ( TickType_t ) 1;
 8000df0:	4b42      	ldr	r3, [pc, #264]	@ (8000efc <xTaskIncrementTick+0x118>)
 8000df2:	681d      	ldr	r5, [r3, #0]
 8000df4:	3501      	adds	r5, #1
		xTickCount = xConstTickCount;
 8000df6:	601d      	str	r5, [r3, #0]
		if( xConstTickCount == ( TickType_t ) 0U ) /*lint !e774 'if' does not always evaluate to false as it is looking for an overflow. */
 8000df8:	b9cd      	cbnz	r5, 8000e2e <xTaskIncrementTick+0x4a>
			taskSWITCH_DELAYED_LISTS();
 8000dfa:	4b41      	ldr	r3, [pc, #260]	@ (8000f00 <xTaskIncrementTick+0x11c>)
 8000dfc:	681a      	ldr	r2, [r3, #0]
 8000dfe:	6812      	ldr	r2, [r2, #0]
 8000e00:	b152      	cbz	r2, 8000e18 <xTaskIncrementTick+0x34>

portFORCE_INLINE static void vPortRaiseBASEPRI( void )
{
uint32_t ulNewBASEPRI;

	__asm volatile
 8000e02:	f04f 0350 	mov.w	r3, #80	@ 0x50
 8000e06:	b672      	cpsid	i
 8000e08:	f383 8811 	msr	BASEPRI, r3
 8000e0c:	f3bf 8f6f 	isb	sy
 8000e10:	f3bf 8f4f 	dsb	sy
 8000e14:	b662      	cpsie	i
 8000e16:	e7fe      	b.n	8000e16 <xTaskIncrementTick+0x32>
 8000e18:	4a3a      	ldr	r2, [pc, #232]	@ (8000f04 <xTaskIncrementTick+0x120>)
 8000e1a:	6819      	ldr	r1, [r3, #0]
 8000e1c:	6810      	ldr	r0, [r2, #0]
 8000e1e:	6018      	str	r0, [r3, #0]
 8000e20:	6011      	str	r1, [r2, #0]
 8000e22:	4a39      	ldr	r2, [pc, #228]	@ (8000f08 <xTaskIncrementTick+0x124>)
 8000e24:	6813      	ldr	r3, [r2, #0]
 8000e26:	3301      	adds	r3, #1
 8000e28:	6013      	str	r3, [r2, #0]
 8000e2a:	f7ff ffc9 	bl	8000dc0 <prvResetNextTaskUnblockTime>
		if( xConstTickCount >= xNextTaskUnblockTime )
 8000e2e:	4e37      	ldr	r6, [pc, #220]	@ (8000f0c <xTaskIncrementTick+0x128>)
BaseType_t xSwitchRequired = pdFALSE;
 8000e30:	2400      	movs	r4, #0
 8000e32:	4f37      	ldr	r7, [pc, #220]	@ (8000f10 <xTaskIncrementTick+0x12c>)
		if( xConstTickCount >= xNextTaskUnblockTime )
 8000e34:	6833      	ldr	r3, [r6, #0]
 8000e36:	f8df 80e4 	ldr.w	r8, [pc, #228]	@ 8000f1c <xTaskIncrementTick+0x138>
 8000e3a:	42ab      	cmp	r3, r5
 8000e3c:	d916      	bls.n	8000e6c <xTaskIncrementTick+0x88>
			if( listCURRENT_LIST_LENGTH( &( pxReadyTasksLists[ pxCurrentTCB->uxPriority ] ) ) > ( UBaseType_t ) 1 )
 8000e3e:	f8d8 3000 	ldr.w	r3, [r8]
 8000e42:	2214      	movs	r2, #20
 8000e44:	6adb      	ldr	r3, [r3, #44]	@ 0x2c
 8000e46:	4353      	muls	r3, r2
 8000e48:	58fb      	ldr	r3, [r7, r3]
				xSwitchRequired = pdTRUE;
 8000e4a:	2b02      	cmp	r3, #2
			if( uxPendedTicks == ( UBaseType_t ) 0U )
 8000e4c:	4b31      	ldr	r3, [pc, #196]	@ (8000f14 <xTaskIncrementTick+0x130>)
 8000e4e:	681b      	ldr	r3, [r3, #0]
				xSwitchRequired = pdTRUE;
 8000e50:	bf28      	it	cs
 8000e52:	2401      	movcs	r4, #1
			if( uxPendedTicks == ( UBaseType_t ) 0U )
 8000e54:	b90b      	cbnz	r3, 8000e5a <xTaskIncrementTick+0x76>
				vApplicationTickHook();
 8000e56:	f7ff ff97 	bl	8000d88 <vApplicationTickHook>
		if( xYieldPending != pdFALSE )
 8000e5a:	4b2f      	ldr	r3, [pc, #188]	@ (8000f18 <xTaskIncrementTick+0x134>)
 8000e5c:	681b      	ldr	r3, [r3, #0]
			xSwitchRequired = pdTRUE;
 8000e5e:	2b00      	cmp	r3, #0
}
 8000e60:	bf0c      	ite	eq
 8000e62:	4620      	moveq	r0, r4
 8000e64:	2001      	movne	r0, #1
 8000e66:	b003      	add	sp, #12
 8000e68:	e8bd 8ff0 	ldmia.w	sp!, {r4, r5, r6, r7, r8, r9, sl, fp, pc}
				if( listLIST_IS_EMPTY( pxDelayedTaskList ) != pdFALSE )
 8000e6c:	f8df a090 	ldr.w	sl, [pc, #144]	@ 8000f00 <xTaskIncrementTick+0x11c>
					prvAddTaskToReadyList( pxTCB );
 8000e70:	f8df b0ac 	ldr.w	fp, [pc, #172]	@ 8000f20 <xTaskIncrementTick+0x13c>
				if( listLIST_IS_EMPTY( pxDelayedTaskList ) != pdFALSE )
 8000e74:	f8da 3000 	ldr.w	r3, [sl]
 8000e78:	681b      	ldr	r3, [r3, #0]
 8000e7a:	b91b      	cbnz	r3, 8000e84 <xTaskIncrementTick+0xa0>
					xNextTaskUnblockTime = portMAX_DELAY; /*lint !e961 MISRA exception as the casts are only redundant for some ports. */
 8000e7c:	f04f 33ff 	mov.w	r3, #4294967295
 8000e80:	6033      	str	r3, [r6, #0]
					break;
 8000e82:	e7dc      	b.n	8000e3e <xTaskIncrementTick+0x5a>
					pxTCB = listGET_OWNER_OF_HEAD_ENTRY( pxDelayedTaskList ); /*lint !e9079 void * is used as this macro is used with timers and co-routines too.  Alignment is known to be fine as the type of the pointer stored and retrieved is the same. */
 8000e84:	f8da 3000 	ldr.w	r3, [sl]
 8000e88:	68db      	ldr	r3, [r3, #12]
 8000e8a:	f8d3 900c 	ldr.w	r9, [r3, #12]
					xItemValue = listGET_LIST_ITEM_VALUE( &( pxTCB->xStateListItem ) );
 8000e8e:	f8d9 2004 	ldr.w	r2, [r9, #4]
					if( xConstTickCount < xItemValue )
 8000e92:	4295      	cmp	r5, r2
 8000e94:	d201      	bcs.n	8000e9a <xTaskIncrementTick+0xb6>
						xNextTaskUnblockTime = xItemValue;
 8000e96:	6032      	str	r2, [r6, #0]
						break; /*lint !e9011 Code structure here is deedmed easier to understand with multiple breaks. */
 8000e98:	e7d1      	b.n	8000e3e <xTaskIncrementTick+0x5a>
					( void ) uxListRemove( &( pxTCB->xStateListItem ) );
 8000e9a:	f109 0304 	add.w	r3, r9, #4
 8000e9e:	4618      	mov	r0, r3
 8000ea0:	9301      	str	r3, [sp, #4]
 8000ea2:	f7ff ff7d 	bl	8000da0 <uxListRemove>
					if( listLIST_ITEM_CONTAINER( &( pxTCB->xEventListItem ) ) != NULL )
 8000ea6:	f8d9 2028 	ldr.w	r2, [r9, #40]	@ 0x28
 8000eaa:	b11a      	cbz	r2, 8000eb4 <xTaskIncrementTick+0xd0>
						( void ) uxListRemove( &( pxTCB->xEventListItem ) );
 8000eac:	f109 0018 	add.w	r0, r9, #24
 8000eb0:	f7ff ff76 	bl	8000da0 <uxListRemove>
					prvAddTaskToReadyList( pxTCB );
 8000eb4:	4648      	mov	r0, r9
 8000eb6:	f000 fc53 	bl	8001760 <SEGGER_SYSVIEW_OnTaskStartReady>
 8000eba:	f8d9 002c 	ldr.w	r0, [r9, #44]	@ 0x2c
 8000ebe:	f8db 2000 	ldr.w	r2, [fp]
 8000ec2:	4290      	cmp	r0, r2
 8000ec4:	d901      	bls.n	8000eca <xTaskIncrementTick+0xe6>
 8000ec6:	f8cb 0000 	str.w	r0, [fp]
 8000eca:	2314      	movs	r3, #20
 8000ecc:	9901      	ldr	r1, [sp, #4]
 8000ece:	fb03 7000 	mla	r0, r3, r0, r7
 8000ed2:	f7ff ff5a 	bl	8000d8a <vListInsertEnd>
						if( pxTCB->uxPriority >= pxCurrentTCB->uxPriority )
 8000ed6:	f8d8 1000 	ldr.w	r1, [r8]
 8000eda:	f8d9 202c 	ldr.w	r2, [r9, #44]	@ 0x2c
 8000ede:	6acb      	ldr	r3, [r1, #44]	@ 0x2c
							xSwitchRequired = pdTRUE;
 8000ee0:	429a      	cmp	r2, r3
 8000ee2:	bf28      	it	cs
 8000ee4:	2401      	movcs	r4, #1
 8000ee6:	e7c5      	b.n	8000e74 <xTaskIncrementTick+0x90>
		++uxPendedTicks;
 8000ee8:	4a0a      	ldr	r2, [pc, #40]	@ (8000f14 <xTaskIncrementTick+0x130>)
BaseType_t xSwitchRequired = pdFALSE;
 8000eea:	2400      	movs	r4, #0
		++uxPendedTicks;
 8000eec:	6813      	ldr	r3, [r2, #0]
 8000eee:	3301      	adds	r3, #1
 8000ef0:	6013      	str	r3, [r2, #0]
			vApplicationTickHook();
 8000ef2:	f7ff ff49 	bl	8000d88 <vApplicationTickHook>
 8000ef6:	e7b0      	b.n	8000e5a <xTaskIncrementTick+0x76>
 8000ef8:	2000002c 	.word	0x2000002c
 8000efc:	2000004c 	.word	0x2000004c
 8000f00:	20000054 	.word	0x20000054
 8000f04:	20000050 	.word	0x20000050
 8000f08:	20000038 	.word	0x20000038
 8000f0c:	20000034 	.word	0x20000034
 8000f10:	20000058 	.word	0x20000058
 8000f14:	20000040 	.word	0x20000040
 8000f18:	2000003c 	.word	0x2000003c
 8000f1c:	200004b8 	.word	0x200004b8
 8000f20:	20000048 	.word	0x20000048

08000f24 <vTaskSwitchContext>:
	if( uxSchedulerSuspended != ( UBaseType_t ) pdFALSE )
 8000f24:	4b1e      	ldr	r3, [pc, #120]	@ (8000fa0 <vTaskSwitchContext+0x7c>)
 8000f26:	681a      	ldr	r2, [r3, #0]
 8000f28:	4b1e      	ldr	r3, [pc, #120]	@ (8000fa4 <vTaskSwitchContext+0x80>)
{
 8000f2a:	b470      	push	{r4, r5, r6}
	if( uxSchedulerSuspended != ( UBaseType_t ) pdFALSE )
 8000f2c:	b11a      	cbz	r2, 8000f36 <vTaskSwitchContext+0x12>
		xYieldPending = pdTRUE;
 8000f2e:	2201      	movs	r2, #1
}
 8000f30:	bc70      	pop	{r4, r5, r6}
		xYieldPending = pdTRUE;
 8000f32:	601a      	str	r2, [r3, #0]
}
 8000f34:	4770      	bx	lr
		taskSELECT_HIGHEST_PRIORITY_TASK(); /*lint !e9079 void * is used as this macro is used with timers and co-routines too.  Alignment is known to be fine as the type of the pointer stored and retrieved is the same. */
 8000f36:	4d1c      	ldr	r5, [pc, #112]	@ (8000fa8 <vTaskSwitchContext+0x84>)
 8000f38:	2614      	movs	r6, #20
		xYieldPending = pdFALSE;
 8000f3a:	601a      	str	r2, [r3, #0]
		taskSELECT_HIGHEST_PRIORITY_TASK(); /*lint !e9079 void * is used as this macro is used with timers and co-routines too.  Alignment is known to be fine as the type of the pointer stored and retrieved is the same. */
 8000f3c:	491b      	ldr	r1, [pc, #108]	@ (8000fac <vTaskSwitchContext+0x88>)
 8000f3e:	682a      	ldr	r2, [r5, #0]
 8000f40:	fb06 f302 	mul.w	r3, r6, r2
 8000f44:	58cc      	ldr	r4, [r1, r3]
 8000f46:	18c8      	adds	r0, r1, r3
 8000f48:	b1c4      	cbz	r4, 8000f7c <vTaskSwitchContext+0x58>
 8000f4a:	6844      	ldr	r4, [r0, #4]
 8000f4c:	3308      	adds	r3, #8
 8000f4e:	6864      	ldr	r4, [r4, #4]
 8000f50:	440b      	add	r3, r1
 8000f52:	429c      	cmp	r4, r3
 8000f54:	6044      	str	r4, [r0, #4]
 8000f56:	bf04      	itt	eq
 8000f58:	6863      	ldreq	r3, [r4, #4]
 8000f5a:	6043      	streq	r3, [r0, #4]
 8000f5c:	2314      	movs	r3, #20
 8000f5e:	fb03 1102 	mla	r1, r3, r2, r1
 8000f62:	684b      	ldr	r3, [r1, #4]
 8000f64:	68d9      	ldr	r1, [r3, #12]
 8000f66:	4b12      	ldr	r3, [pc, #72]	@ (8000fb0 <vTaskSwitchContext+0x8c>)
 8000f68:	6019      	str	r1, [r3, #0]
 8000f6a:	602a      	str	r2, [r5, #0]
		traceTASK_SWITCHED_IN();
 8000f6c:	4a11      	ldr	r2, [pc, #68]	@ (8000fb4 <vTaskSwitchContext+0x90>)
 8000f6e:	6819      	ldr	r1, [r3, #0]
 8000f70:	6812      	ldr	r2, [r2, #0]
 8000f72:	4291      	cmp	r1, r2
 8000f74:	d110      	bne.n	8000f98 <vTaskSwitchContext+0x74>
}
 8000f76:	bc70      	pop	{r4, r5, r6}
		traceTASK_SWITCHED_IN();
 8000f78:	f000 bbbc 	b.w	80016f4 <SEGGER_SYSVIEW_OnIdle>
		taskSELECT_HIGHEST_PRIORITY_TASK(); /*lint !e9079 void * is used as this macro is used with timers and co-routines too.  Alignment is known to be fine as the type of the pointer stored and retrieved is the same. */
 8000f7c:	b952      	cbnz	r2, 8000f94 <vTaskSwitchContext+0x70>
 8000f7e:	f04f 0350 	mov.w	r3, #80	@ 0x50
 8000f82:	b672      	cpsid	i
 8000f84:	f383 8811 	msr	BASEPRI, r3
 8000f88:	f3bf 8f6f 	isb	sy
 8000f8c:	f3bf 8f4f 	dsb	sy
 8000f90:	b662      	cpsie	i
 8000f92:	e7fe      	b.n	8000f92 <vTaskSwitchContext+0x6e>
 8000f94:	3a01      	subs	r2, #1
 8000f96:	e7d3      	b.n	8000f40 <vTaskSwitchContext+0x1c>
		traceTASK_SWITCHED_IN();
 8000f98:	6818      	ldr	r0, [r3, #0]
}
 8000f9a:	bc70      	pop	{r4, r5, r6}
		traceTASK_SWITCHED_IN();
 8000f9c:	f000 bbbc 	b.w	8001718 <SEGGER_SYSVIEW_OnTaskStartExec>
 8000fa0:	2000002c 	.word	0x2000002c
 8000fa4:	2000003c 	.word	0x2000003c
 8000fa8:	20000048 	.word	0x20000048
 8000fac:	20000058 	.word	0x20000058
 8000fb0:	200004b8 	.word	0x200004b8
 8000fb4:	20000030 	.word	0x20000030

08000fb8 <xTaskGetSchedulerState>:

	BaseType_t xTaskGetSchedulerState( void )
	{
	BaseType_t xReturn;

		if( xSchedulerRunning == pdFALSE )
 8000fb8:	4b05      	ldr	r3, [pc, #20]	@ (8000fd0 <xTaskGetSchedulerState+0x18>)
 8000fba:	681b      	ldr	r3, [r3, #0]
 8000fbc:	b133      	cbz	r3, 8000fcc <xTaskGetSchedulerState+0x14>
		{
			xReturn = taskSCHEDULER_NOT_STARTED;
		}
		else
		{
			if( uxSchedulerSuspended == ( UBaseType_t ) pdFALSE )
 8000fbe:	4b05      	ldr	r3, [pc, #20]	@ (8000fd4 <xTaskGetSchedulerState+0x1c>)
 8000fc0:	6818      	ldr	r0, [r3, #0]
 8000fc2:	fab0 f080 	clz	r0, r0
 8000fc6:	0940      	lsrs	r0, r0, #5
 8000fc8:	0040      	lsls	r0, r0, #1
 8000fca:	4770      	bx	lr
			xReturn = taskSCHEDULER_NOT_STARTED;
 8000fcc:	2001      	movs	r0, #1
				xReturn = taskSCHEDULER_SUSPENDED;
			}
		}

		return xReturn;
	}
 8000fce:	4770      	bx	lr
 8000fd0:	20000044 	.word	0x20000044
 8000fd4:	2000002c 	.word	0x2000002c
	...

08000fe0 <SVC_Handler>:
}
/*-----------------------------------------------------------*/

void vPortSVCHandler( void )
{
	__asm volatile (
 8000fe0:	4b07      	ldr	r3, [pc, #28]	@ (8001000 <pxCurrentTCBConst2>)
 8000fe2:	6819      	ldr	r1, [r3, #0]
 8000fe4:	6808      	ldr	r0, [r1, #0]
 8000fe6:	e8b0 4ff0 	ldmia.w	r0!, {r4, r5, r6, r7, r8, r9, sl, fp, lr}
 8000fea:	f380 8809 	msr	PSP, r0
 8000fee:	f3bf 8f6f 	isb	sy
 8000ff2:	f04f 0000 	mov.w	r0, #0
 8000ff6:	f380 8811 	msr	BASEPRI, r0
 8000ffa:	4770      	bx	lr
 8000ffc:	f3af 8000 	nop.w

08001000 <pxCurrentTCBConst2>:
 8001000:	200004b8 	.word	0x200004b8
	...

08001010 <PendSV_Handler>:

void xPortPendSVHandler( void )
{
	/* This is a naked function. */

	__asm volatile
 8001010:	f3ef 8009 	mrs	r0, PSP
 8001014:	f3bf 8f6f 	isb	sy
 8001018:	4b15      	ldr	r3, [pc, #84]	@ (8001070 <pxCurrentTCBConst>)
 800101a:	681a      	ldr	r2, [r3, #0]
 800101c:	f01e 0f10 	tst.w	lr, #16
 8001020:	bf08      	it	eq
 8001022:	ed20 8a10 	vstmdbeq	r0!, {s16-s31}
 8001026:	e920 4ff0 	stmdb	r0!, {r4, r5, r6, r7, r8, r9, sl, fp, lr}
 800102a:	6010      	str	r0, [r2, #0]
 800102c:	e92d 0009 	stmdb	sp!, {r0, r3}
 8001030:	f04f 0050 	mov.w	r0, #80	@ 0x50
 8001034:	b672      	cpsid	i
 8001036:	f380 8811 	msr	BASEPRI, r0
 800103a:	f3bf 8f4f 	dsb	sy
 800103e:	f3bf 8f6f 	isb	sy
 8001042:	b662      	cpsie	i
 8001044:	f7ff ff6e 	bl	8000f24 <vTaskSwitchContext>
 8001048:	f04f 0000 	mov.w	r0, #0
 800104c:	f380 8811 	msr	BASEPRI, r0
 8001050:	bc09      	pop	{r0, r3}
 8001052:	6819      	ldr	r1, [r3, #0]
 8001054:	6808      	ldr	r0, [r1, #0]
 8001056:	e8b0 4ff0 	ldmia.w	r0!, {r4, r5, r6, r7, r8, r9, sl, fp, lr}
 800105a:	f01e 0f10 	tst.w	lr, #16
 800105e:	bf08      	it	eq
 8001060:	ecb0 8a10 	vldmiaeq	r0!, {s16-s31}
 8001064:	f380 8809 	msr	PSP, r0
 8001068:	f3bf 8f6f 	isb	sy
 800106c:	4770      	bx	lr
 800106e:	bf00      	nop

08001070 <pxCurrentTCBConst>:
 8001070:	200004b8 	.word	0x200004b8

08001074 <xPortSysTickHandler>:
	);
}
/*-----------------------------------------------------------*/

void xPortSysTickHandler( void )
{
 8001074:	b508      	push	{r3, lr}
 8001076:	f04f 0350 	mov.w	r3, #80	@ 0x50
 800107a:	b672      	cpsid	i
 800107c:	f383 8811 	msr	BASEPRI, r3
 8001080:	f3bf 8f6f 	isb	sy
 8001084:	f3bf 8f4f 	dsb	sy
 8001088:	b662      	cpsie	i
	executes all interrupts must be unmasked.  There is therefore no need to
	save and then restore the interrupt mask value as its value is already
	known. */
	portDISABLE_INTERRUPTS();
	{
		traceISR_ENTER();
 800108a:	f000 fafb 	bl	8001684 <SEGGER_SYSVIEW_RecordEnterISR>

		/* Increment the RTOS tick. */
		if( xTaskIncrementTick() != pdFALSE )
 800108e:	f7ff fea9 	bl	8000de4 <xTaskIncrementTick>
 8001092:	b148      	cbz	r0, 80010a8 <xPortSysTickHandler+0x34>
		{
			/* A context switch is required.  Context switching is performed in
			the PendSV interrupt.  Pend the PendSV interrupt. */
			portNVIC_INT_CTRL_REG = portNVIC_PENDSVSET_BIT;
 8001094:	f04f 23e0 	mov.w	r3, #3758153728	@ 0xe000e000
 8001098:	f04f 5280 	mov.w	r2, #268435456	@ 0x10000000
 800109c:	f8c3 2d04 	str.w	r2, [r3, #3332]	@ 0xd04
}
/*-----------------------------------------------------------*/

portFORCE_INLINE static void vPortSetBASEPRI( uint32_t ulNewMaskValue )
{
	__asm volatile
 80010a0:	2300      	movs	r3, #0
 80010a2:	f383 8811 	msr	BASEPRI, r3
		{
			traceISR_EXIT();
		}
	}
	portENABLE_INTERRUPTS();
}
 80010a6:	bd08      	pop	{r3, pc}
			traceISR_EXIT();
 80010a8:	f000 fb12 	bl	80016d0 <SEGGER_SYSVIEW_RecordExitISR>
 80010ac:	e7f8      	b.n	80010a0 <xPortSysTickHandler+0x2c>
	...

080010b0 <_DoInit>:
*
*/
#define INIT()  do {                                            \
                  if (_SEGGER_RTT.acID[0] == '\0') { _DoInit(); }  \
                } while (0)
static void _DoInit(void) {
 80010b0:	b510      	push	{r4, lr}
  SEGGER_RTT_CB* p;
  //
  // Initialize control block
  //
  p = &_SEGGER_RTT;
  p->MaxNumUpBuffers    = SEGGER_RTT_MAX_NUM_UP_BUFFERS;
 80010b2:	2303      	movs	r3, #3
 80010b4:	4c10      	ldr	r4, [pc, #64]	@ (80010f8 <_DoInit+0x48>)
  p->MaxNumDownBuffers  = SEGGER_RTT_MAX_NUM_DOWN_BUFFERS;
  //
  // Initialize up buffer 0
  //
  p->aUp[0].sName         = "Terminal";
 80010b6:	4a11      	ldr	r2, [pc, #68]	@ (80010fc <_DoInit+0x4c>)
  //
  // Finish initialization of the control block.
  // Copy Id string in three steps to make sure "SEGGER RTT" is not found
  // in initializer memory (usually flash) by J-Link
  //
  strcpy(&p->acID[7], "RTT");
 80010b8:	4911      	ldr	r1, [pc, #68]	@ (8001100 <_DoInit+0x50>)
 80010ba:	1de0      	adds	r0, r4, #7
  p->aUp[0].sName         = "Terminal";
 80010bc:	61a2      	str	r2, [r4, #24]
  p->aDown[0].sName         = "Terminal";
 80010be:	6622      	str	r2, [r4, #96]	@ 0x60
  p->aDown[0].pBuffer       = _acDownBuffer;
 80010c0:	4a10      	ldr	r2, [pc, #64]	@ (8001104 <_DoInit+0x54>)
  p->MaxNumDownBuffers  = SEGGER_RTT_MAX_NUM_DOWN_BUFFERS;
 80010c2:	e9c4 3304 	strd	r3, r3, [r4, #16]
  p->aUp[0].pBuffer       = _acUpBuffer;
 80010c6:	4b10      	ldr	r3, [pc, #64]	@ (8001108 <_DoInit+0x58>)
  p->aDown[0].pBuffer       = _acDownBuffer;
 80010c8:	6662      	str	r2, [r4, #100]	@ 0x64
  p->aDown[0].SizeOfBuffer  = sizeof(_acDownBuffer);
 80010ca:	2210      	movs	r2, #16
  p->aUp[0].pBuffer       = _acUpBuffer;
 80010cc:	61e3      	str	r3, [r4, #28]
  p->aUp[0].SizeOfBuffer  = sizeof(_acUpBuffer);
 80010ce:	f44f 6380 	mov.w	r3, #1024	@ 0x400
  p->aDown[0].SizeOfBuffer  = sizeof(_acDownBuffer);
 80010d2:	66a2      	str	r2, [r4, #104]	@ 0x68
  p->aUp[0].SizeOfBuffer  = sizeof(_acUpBuffer);
 80010d4:	6223      	str	r3, [r4, #32]
  p->aUp[0].RdOff         = 0u;
 80010d6:	2300      	movs	r3, #0
 80010d8:	62a3      	str	r3, [r4, #40]	@ 0x28
  p->aUp[0].WrOff         = 0u;
 80010da:	6263      	str	r3, [r4, #36]	@ 0x24
  p->aUp[0].Flags         = SEGGER_RTT_MODE_DEFAULT;
 80010dc:	62e3      	str	r3, [r4, #44]	@ 0x2c
  p->aDown[0].RdOff         = 0u;
 80010de:	6723      	str	r3, [r4, #112]	@ 0x70
  p->aDown[0].WrOff         = 0u;
 80010e0:	66e3      	str	r3, [r4, #108]	@ 0x6c
  p->aDown[0].Flags         = SEGGER_RTT_MODE_DEFAULT;
 80010e2:	6763      	str	r3, [r4, #116]	@ 0x74
  strcpy(&p->acID[7], "RTT");
 80010e4:	f000 ff8c 	bl	8002000 <strcpy>
  strcpy(&p->acID[0], "SEGGER");
 80010e8:	4908      	ldr	r1, [pc, #32]	@ (800110c <_DoInit+0x5c>)
 80010ea:	4620      	mov	r0, r4
 80010ec:	f000 ff88 	bl	8002000 <strcpy>
  p->acID[6] = ' ';
 80010f0:	2320      	movs	r3, #32
 80010f2:	71a3      	strb	r3, [r4, #6]
}
 80010f4:	bd10      	pop	{r4, pc}
 80010f6:	bf00      	nop
 80010f8:	200008cc 	.word	0x200008cc
 80010fc:	0800217b 	.word	0x0800217b
 8001100:	08002184 	.word	0x08002184
 8001104:	200004bc 	.word	0x200004bc
 8001108:	200004cc 	.word	0x200004cc
 800110c:	08002188 	.word	0x08002188

08001110 <SEGGER_RTT_ReadNoLock>:
*    BufferSize   Size of the target application buffer.
*
*  Return value
*    Number of bytes that have been read.
*/
unsigned SEGGER_RTT_ReadNoLock(unsigned BufferIndex, void* pData, unsigned BufferSize) {
 8001110:	e92d 4ff8 	stmdb	sp!, {r3, r4, r5, r6, r7, r8, r9, sl, fp, lr}
  SEGGER_RTT_BUFFER_DOWN* pRing;
#if SEGGER_RTT_MEMCPY_USE_BYTELOOP
  const char*             pSrc;
#endif
  //
  INIT();
 8001114:	f8df 807c 	ldr.w	r8, [pc, #124]	@ 8001194 <SEGGER_RTT_ReadNoLock+0x84>
unsigned SEGGER_RTT_ReadNoLock(unsigned BufferIndex, void* pData, unsigned BufferSize) {
 8001118:	4682      	mov	sl, r0
 800111a:	4689      	mov	r9, r1
 800111c:	4616      	mov	r6, r2
  INIT();
 800111e:	f898 3000 	ldrb.w	r3, [r8]
 8001122:	b90b      	cbnz	r3, 8001128 <SEGGER_RTT_ReadNoLock+0x18>
 8001124:	f7ff ffc4 	bl	80010b0 <_DoInit>
  pRing = &_SEGGER_RTT.aDown[BufferIndex];
  pBuffer = (unsigned char*)pData;
  RdOff = pRing->RdOff;
 8001128:	2718      	movs	r7, #24
 800112a:	fb07 870a 	mla	r7, r7, sl, r8
 800112e:	6f3d      	ldr	r5, [r7, #112]	@ 0x70
  WrOff = pRing->WrOff;
 8001130:	f8d7 b06c 	ldr.w	fp, [r7, #108]	@ 0x6c
  NumBytesRead = 0u;
  //
  // Read from current read position to wrap-around of buffer, first
  //
  if (RdOff > WrOff) {
 8001134:	455d      	cmp	r5, fp
 8001136:	d92b      	bls.n	8001190 <SEGGER_RTT_ReadNoLock+0x80>
    NumBytesRem = pRing->SizeOfBuffer - RdOff;
 8001138:	6ebc      	ldr	r4, [r7, #104]	@ 0x68
    RdOff        += NumBytesRem;
    while (NumBytesRem--) {
      *pBuffer++ = *pSrc++;
    };
#else
    SEGGER_RTT_MEMCPY(pBuffer, pRing->pBuffer + RdOff, NumBytesRem);
 800113a:	4648      	mov	r0, r9
 800113c:	6e79      	ldr	r1, [r7, #100]	@ 0x64
    NumBytesRem = pRing->SizeOfBuffer - RdOff;
 800113e:	1b64      	subs	r4, r4, r5
    SEGGER_RTT_MEMCPY(pBuffer, pRing->pBuffer + RdOff, NumBytesRem);
 8001140:	4429      	add	r1, r5
    NumBytesRem = MIN(NumBytesRem, BufferSize);
 8001142:	42b4      	cmp	r4, r6
 8001144:	bf28      	it	cs
 8001146:	4634      	movcs	r4, r6
    SEGGER_RTT_MEMCPY(pBuffer, pRing->pBuffer + RdOff, NumBytesRem);
 8001148:	4622      	mov	r2, r4
    NumBytesRead += NumBytesRem;
    pBuffer      += NumBytesRem;
    BufferSize   -= NumBytesRem;
    RdOff        += NumBytesRem;
 800114a:	4425      	add	r5, r4
    SEGGER_RTT_MEMCPY(pBuffer, pRing->pBuffer + RdOff, NumBytesRem);
 800114c:	f000 ff60 	bl	8002010 <memcpy>
#endif
    //
    // Handle wrap-around of buffer
    //
    if (RdOff == pRing->SizeOfBuffer) {
 8001150:	6ebb      	ldr	r3, [r7, #104]	@ 0x68
    pBuffer      += NumBytesRem;
 8001152:	44a1      	add	r9, r4
    BufferSize   -= NumBytesRem;
 8001154:	1b36      	subs	r6, r6, r4
      RdOff = 0u;
 8001156:	42ab      	cmp	r3, r5
 8001158:	bf08      	it	eq
 800115a:	2500      	moveq	r5, #0
    }
  }
  //
  // Read remaining items of buffer
  //
  NumBytesRem = WrOff - RdOff;
 800115c:	ebab 0b05 	sub.w	fp, fp, r5
  NumBytesRem = MIN(NumBytesRem, BufferSize);
 8001160:	455e      	cmp	r6, fp
 8001162:	bf28      	it	cs
 8001164:	465e      	movcs	r6, fp
  if (NumBytesRem > 0u) {
 8001166:	b156      	cbz	r6, 800117e <SEGGER_RTT_ReadNoLock+0x6e>
    RdOff        += NumBytesRem;
    while (NumBytesRem--) {
      *pBuffer++ = *pSrc++;
    };
#else
    SEGGER_RTT_MEMCPY(pBuffer, pRing->pBuffer + RdOff, NumBytesRem);
 8001168:	2318      	movs	r3, #24
    NumBytesRead += NumBytesRem;
 800116a:	4434      	add	r4, r6
    SEGGER_RTT_MEMCPY(pBuffer, pRing->pBuffer + RdOff, NumBytesRem);
 800116c:	4632      	mov	r2, r6
 800116e:	4648      	mov	r0, r9
 8001170:	fb03 830a 	mla	r3, r3, sl, r8
 8001174:	6e59      	ldr	r1, [r3, #100]	@ 0x64
 8001176:	4429      	add	r1, r5
    pBuffer      += NumBytesRem;
    BufferSize   -= NumBytesRem;
    RdOff        += NumBytesRem;
 8001178:	4435      	add	r5, r6
    SEGGER_RTT_MEMCPY(pBuffer, pRing->pBuffer + RdOff, NumBytesRem);
 800117a:	f000 ff49 	bl	8002010 <memcpy>
#endif
  }
  if (NumBytesRead) {
 800117e:	b124      	cbz	r4, 800118a <SEGGER_RTT_ReadNoLock+0x7a>
    pRing->RdOff = RdOff;
 8001180:	2318      	movs	r3, #24
 8001182:	fb03 880a 	mla	r8, r3, sl, r8
 8001186:	f8c8 5070 	str.w	r5, [r8, #112]	@ 0x70
  }
  //
  return NumBytesRead;
}
 800118a:	4620      	mov	r0, r4
 800118c:	e8bd 8ff8 	ldmia.w	sp!, {r3, r4, r5, r6, r7, r8, r9, sl, fp, pc}
  NumBytesRead = 0u;
 8001190:	2400      	movs	r4, #0
 8001192:	e7e3      	b.n	800115c <SEGGER_RTT_ReadNoLock+0x4c>
 8001194:	200008cc 	.word	0x200008cc

08001198 <_EncodeStr>:
*  Additional information
*    The string is encoded as a count byte followed by the contents
*    of the string.
*    No more than 1 + Limit bytes will be encoded to the payload.
*/
static U8 *_EncodeStr(U8 *pPayload, const char *pText, unsigned int Limit) {
 8001198:	b570      	push	{r4, r5, r6, lr}
 800119a:	4616      	mov	r6, r2
 800119c:	4605      	mov	r5, r0
  unsigned int Len;
  //
  // Compute string len
  //
  Len = 0;
  while(*(pText + Len) != 0) {
 800119e:	4608      	mov	r0, r1
static U8 *_EncodeStr(U8 *pPayload, const char *pText, unsigned int Limit) {
 80011a0:	460c      	mov	r4, r1
  while(*(pText + Len) != 0) {
 80011a2:	f7ff f893 	bl	80002cc <strlen>
    Len++;
  }
  if (Len > Limit) {
 80011a6:	42b0      	cmp	r0, r6
 80011a8:	bf28      	it	cs
 80011aa:	4630      	movcs	r0, r6
    Len = Limit;
  }
  //
  // Write Len
  //
  if (Len < 255)  {
 80011ac:	28fe      	cmp	r0, #254	@ 0xfe
    *pPayload++ = Len; 
 80011ae:	b2c2      	uxtb	r2, r0
  if (Len < 255)  {
 80011b0:	d808      	bhi.n	80011c4 <_EncodeStr+0x2c>
    *pPayload++ = Len; 
 80011b2:	462b      	mov	r3, r5
 80011b4:	f803 2b01 	strb.w	r2, [r3], #1
 80011b8:	1e5a      	subs	r2, r3, #1
 80011ba:	1821      	adds	r1, r4, r0
  }
  //
  // copy string
  //
  n = 0;
  while (n < Len) {
 80011bc:	428c      	cmp	r4, r1
 80011be:	d108      	bne.n	80011d2 <_EncodeStr+0x3a>
    *pPayload++ = *pText++;
    n++;
  }
  return pPayload;
}
 80011c0:	4418      	add	r0, r3
 80011c2:	bd70      	pop	{r4, r5, r6, pc}
    *pPayload++ = 255;
 80011c4:	23ff      	movs	r3, #255	@ 0xff
    *pPayload++ = (Len & 255);
 80011c6:	706a      	strb	r2, [r5, #1]
    *pPayload++ = ((Len >> 8) & 255);
 80011c8:	0a02      	lsrs	r2, r0, #8
    *pPayload++ = 255;
 80011ca:	702b      	strb	r3, [r5, #0]
    *pPayload++ = ((Len >> 8) & 255);
 80011cc:	1ceb      	adds	r3, r5, #3
 80011ce:	70aa      	strb	r2, [r5, #2]
 80011d0:	e7f2      	b.n	80011b8 <_EncodeStr+0x20>
    *pPayload++ = *pText++;
 80011d2:	f814 5b01 	ldrb.w	r5, [r4], #1
 80011d6:	f802 5f01 	strb.w	r5, [r2, #1]!
    n++;
 80011da:	e7ef      	b.n	80011bc <_EncodeStr+0x24>

080011dc <SEGGER_SYSVIEW_SendTaskList>:
*
*  Function description
*    Send all tasks descriptors to the host.
*/
void SEGGER_SYSVIEW_SendTaskList(void) {
  if (_SYSVIEW_Globals.pOSAPI && _SYSVIEW_Globals.pOSAPI->pfSendTaskList) {
 80011dc:	4b03      	ldr	r3, [pc, #12]	@ (80011ec <SEGGER_SYSVIEW_SendTaskList+0x10>)
 80011de:	6a1b      	ldr	r3, [r3, #32]
 80011e0:	b113      	cbz	r3, 80011e8 <SEGGER_SYSVIEW_SendTaskList+0xc>
 80011e2:	685b      	ldr	r3, [r3, #4]
 80011e4:	b103      	cbz	r3, 80011e8 <SEGGER_SYSVIEW_SendTaskList+0xc>
    _SYSVIEW_Globals.pOSAPI->pfSendTaskList();
 80011e6:	4718      	bx	r3
  }
}
 80011e8:	4770      	bx	lr
 80011ea:	bf00      	nop
 80011ec:	20000a5c 	.word	0x20000a5c

080011f0 <SEGGER_SYSVIEW_SendModuleDescription>:
*
*/
void SEGGER_SYSVIEW_SendModuleDescription(void) {
  SEGGER_SYSVIEW_MODULE* pModule;

  if (_pFirstModule != 0) {
 80011f0:	4b04      	ldr	r3, [pc, #16]	@ (8001204 <SEGGER_SYSVIEW_SendModuleDescription+0x14>)
void SEGGER_SYSVIEW_SendModuleDescription(void) {
 80011f2:	b510      	push	{r4, lr}
  if (_pFirstModule != 0) {
 80011f4:	681c      	ldr	r4, [r3, #0]
 80011f6:	b124      	cbz	r4, 8001202 <SEGGER_SYSVIEW_SendModuleDescription+0x12>
    pModule = _pFirstModule;
    do {
      if (pModule->pfSendModuleDesc) {
 80011f8:	68e3      	ldr	r3, [r4, #12]
 80011fa:	b103      	cbz	r3, 80011fe <SEGGER_SYSVIEW_SendModuleDescription+0xe>
        pModule->pfSendModuleDesc();
 80011fc:	4798      	blx	r3
      }
      pModule = pModule->pNext;
 80011fe:	6924      	ldr	r4, [r4, #16]
    } while (pModule);
 8001200:	e7f9      	b.n	80011f6 <SEGGER_SYSVIEW_SendModuleDescription+0x6>
  }
}
 8001202:	bd10      	pop	{r4, pc}
 8001204:	20000a58 	.word	0x20000a58

08001208 <SEGGER_SYSVIEW_SendNumModules>:
*       SEGGER_SYSVIEW_SendNumModules()
*
*  Function description
*    Send the number of registered modules to the host.
*/
void SEGGER_SYSVIEW_SendNumModules(void) {
 8001208:	b510      	push	{r4, lr}
  U8* pPayload;
  U8* pPayloadStart;
  RECORD_START(SEGGER_SYSVIEW_INFO_SIZE + 2*SEGGER_SYSVIEW_QUANTA_U32);
 800120a:	f3ef 8411 	mrs	r4, BASEPRI
 800120e:	f04f 0120 	mov.w	r1, #32
 8001212:	f381 8811 	msr	BASEPRI, r1
  pPayload = pPayloadStart;
  ENCODE_U32(pPayload, _NumModules);
 8001216:	4b09      	ldr	r3, [pc, #36]	@ (800123c <SEGGER_SYSVIEW_SendNumModules+0x34>)
  _SendPacket(pPayloadStart, pPayload, SYSVIEW_EVTID_NUMMODULES);
 8001218:	221b      	movs	r2, #27
 800121a:	4809      	ldr	r0, [pc, #36]	@ (8001240 <SEGGER_SYSVIEW_SendNumModules+0x38>)
  ENCODE_U32(pPayload, _NumModules);
 800121c:	781b      	ldrb	r3, [r3, #0]
 800121e:	2b7f      	cmp	r3, #127	@ 0x7f
 8001220:	bf89      	itett	hi
 8001222:	4908      	ldrhi	r1, [pc, #32]	@ (8001244 <SEGGER_SYSVIEW_SendNumModules+0x3c>)
 8001224:	4906      	ldrls	r1, [pc, #24]	@ (8001240 <SEGGER_SYSVIEW_SendNumModules+0x38>)
 8001226:	710b      	strbhi	r3, [r1, #4]
 8001228:	2301      	movhi	r3, #1
 800122a:	bf88      	it	hi
 800122c:	3105      	addhi	r1, #5
 800122e:	f801 3b01 	strb.w	r3, [r1], #1
  _SendPacket(pPayloadStart, pPayload, SYSVIEW_EVTID_NUMMODULES);
 8001232:	f000 f8af 	bl	8001394 <_SendPacket>
  RECORD_END();
 8001236:	f384 8811 	msr	BASEPRI, r4
}
 800123a:	bd10      	pop	{r4, pc}
 800123c:	20000a57 	.word	0x20000a57
 8001240:	20000978 	.word	0x20000978
 8001244:	20000974 	.word	0x20000974

08001248 <SEGGER_SYSVIEW_Start>:
void SEGGER_SYSVIEW_Start(void) {
 8001248:	b538      	push	{r3, r4, r5, lr}
  if (_SYSVIEW_Globals.EnableState == 0) {
 800124a:	4c2c      	ldr	r4, [pc, #176]	@ (80012fc <SEGGER_SYSVIEW_Start+0xb4>)
 800124c:	7823      	ldrb	r3, [r4, #0]
 800124e:	2b00      	cmp	r3, #0
 8001250:	d152      	bne.n	80012f8 <SEGGER_SYSVIEW_Start+0xb0>
    _SYSVIEW_Globals.EnableState = 1;
 8001252:	2001      	movs	r0, #1
 8001254:	7020      	strb	r0, [r4, #0]
    SEGGER_SYSVIEW_LOCK();
 8001256:	f3ef 8511 	mrs	r5, BASEPRI
 800125a:	f04f 0120 	mov.w	r1, #32
 800125e:	f381 8811 	msr	BASEPRI, r1
    SEGGER_RTT_WriteSkipNoLock(CHANNEL_ID_UP, _abSync, 10);
 8001262:	220a      	movs	r2, #10
 8001264:	4926      	ldr	r1, [pc, #152]	@ (8001300 <SEGGER_SYSVIEW_Start+0xb8>)
 8001266:	f7fe ffeb 	bl	8000240 <SEGGER_RTT_ASM_WriteSkipNoLock>
    SEGGER_SYSVIEW_UNLOCK();
 800126a:	f385 8811 	msr	BASEPRI, r5
    SEGGER_SYSVIEW_RecordVoid(SYSVIEW_EVTID_TRACE_START);
 800126e:	200a      	movs	r0, #10
 8001270:	f000 f934 	bl	80014dc <SEGGER_SYSVIEW_RecordVoid>
      RECORD_START(SEGGER_SYSVIEW_INFO_SIZE + 4 * SEGGER_SYSVIEW_QUANTA_U32);
 8001274:	f3ef 8511 	mrs	r5, BASEPRI
 8001278:	f04f 0120 	mov.w	r1, #32
 800127c:	f381 8811 	msr	BASEPRI, r1
      ENCODE_U32(pPayload, _SYSVIEW_Globals.SysFreq);
 8001280:	4820      	ldr	r0, [pc, #128]	@ (8001304 <SEGGER_SYSVIEW_Start+0xbc>)
 8001282:	6861      	ldr	r1, [r4, #4]
 8001284:	297f      	cmp	r1, #127	@ 0x7f
 8001286:	b2ca      	uxtb	r2, r1
 8001288:	f100 0301 	add.w	r3, r0, #1
 800128c:	d820      	bhi.n	80012d0 <SEGGER_SYSVIEW_Start+0x88>
 800128e:	7002      	strb	r2, [r0, #0]
      ENCODE_U32(pPayload, _SYSVIEW_Globals.CPUFreq);
 8001290:	68a0      	ldr	r0, [r4, #8]
 8001292:	287f      	cmp	r0, #127	@ 0x7f
 8001294:	b2c2      	uxtb	r2, r0
 8001296:	f103 0101 	add.w	r1, r3, #1
 800129a:	d820      	bhi.n	80012de <SEGGER_SYSVIEW_Start+0x96>
 800129c:	701a      	strb	r2, [r3, #0]
      ENCODE_U32(pPayload, _SYSVIEW_Globals.RAMBaseAddress);
 800129e:	6922      	ldr	r2, [r4, #16]
 80012a0:	2a7f      	cmp	r2, #127	@ 0x7f
 80012a2:	b2d3      	uxtb	r3, r2
 80012a4:	d822      	bhi.n	80012ec <SEGGER_SYSVIEW_Start+0xa4>
 80012a6:	700b      	strb	r3, [r1, #0]
      ENCODE_U32(pPayload, SEGGER_SYSVIEW_ID_SHIFT);
 80012a8:	2302      	movs	r3, #2
      _SendPacket(pPayloadStart, pPayload, SYSVIEW_EVTID_INIT);
 80012aa:	2218      	movs	r2, #24
 80012ac:	4815      	ldr	r0, [pc, #84]	@ (8001304 <SEGGER_SYSVIEW_Start+0xbc>)
      ENCODE_U32(pPayload, SEGGER_SYSVIEW_ID_SHIFT);
 80012ae:	704b      	strb	r3, [r1, #1]
      _SendPacket(pPayloadStart, pPayload, SYSVIEW_EVTID_INIT);
 80012b0:	4419      	add	r1, r3
 80012b2:	f000 f86f 	bl	8001394 <_SendPacket>
      RECORD_END();
 80012b6:	f385 8811 	msr	BASEPRI, r5
    if (_SYSVIEW_Globals.pfSendSysDesc) {
 80012ba:	6a63      	ldr	r3, [r4, #36]	@ 0x24
 80012bc:	b103      	cbz	r3, 80012c0 <SEGGER_SYSVIEW_Start+0x78>
      _SYSVIEW_Globals.pfSendSysDesc();
 80012be:	4798      	blx	r3
    SEGGER_SYSVIEW_RecordSystime();
 80012c0:	f000 f96a 	bl	8001598 <SEGGER_SYSVIEW_RecordSystime>
    SEGGER_SYSVIEW_SendTaskList();
 80012c4:	f7ff ff8a 	bl	80011dc <SEGGER_SYSVIEW_SendTaskList>
}
 80012c8:	e8bd 4038 	ldmia.w	sp!, {r3, r4, r5, lr}
    SEGGER_SYSVIEW_SendNumModules();
 80012cc:	f7ff bf9c 	b.w	8001208 <SEGGER_SYSVIEW_SendNumModules>
      ENCODE_U32(pPayload, _SYSVIEW_Globals.SysFreq);
 80012d0:	f062 027f 	orn	r2, r2, #127	@ 0x7f
 80012d4:	09c9      	lsrs	r1, r1, #7
 80012d6:	4618      	mov	r0, r3
 80012d8:	f803 2c01 	strb.w	r2, [r3, #-1]
 80012dc:	e7d2      	b.n	8001284 <SEGGER_SYSVIEW_Start+0x3c>
      ENCODE_U32(pPayload, _SYSVIEW_Globals.CPUFreq);
 80012de:	f062 027f 	orn	r2, r2, #127	@ 0x7f
 80012e2:	09c0      	lsrs	r0, r0, #7
 80012e4:	460b      	mov	r3, r1
 80012e6:	f801 2c01 	strb.w	r2, [r1, #-1]
 80012ea:	e7d2      	b.n	8001292 <SEGGER_SYSVIEW_Start+0x4a>
      ENCODE_U32(pPayload, _SYSVIEW_Globals.RAMBaseAddress);
 80012ec:	f063 037f 	orn	r3, r3, #127	@ 0x7f
 80012f0:	09d2      	lsrs	r2, r2, #7
 80012f2:	f801 3b01 	strb.w	r3, [r1], #1
 80012f6:	e7d3      	b.n	80012a0 <SEGGER_SYSVIEW_Start+0x58>
}
 80012f8:	bd38      	pop	{r3, r4, r5, pc}
 80012fa:	bf00      	nop
 80012fc:	20000a5c 	.word	0x20000a5c
 8001300:	080021a2 	.word	0x080021a2
 8001304:	20000978 	.word	0x20000978

08001308 <_HandleIncomingPacket>:
static void _HandleIncomingPacket(void) {
 8001308:	b507      	push	{r0, r1, r2, lr}
  Status = SEGGER_RTT_ReadNoLock(CHANNEL_ID_DOWN, &Cmd, 1);
 800130a:	2201      	movs	r2, #1
 800130c:	f10d 0107 	add.w	r1, sp, #7
 8001310:	4610      	mov	r0, r2
 8001312:	f7ff fefd 	bl	8001110 <SEGGER_RTT_ReadNoLock>
  if (Status > 0) {
 8001316:	2800      	cmp	r0, #0
 8001318:	dd19      	ble.n	800134e <_HandleIncomingPacket+0x46>
    switch (Cmd) {
 800131a:	f89d 3007 	ldrb.w	r3, [sp, #7]
 800131e:	2b07      	cmp	r3, #7
 8001320:	d808      	bhi.n	8001334 <_HandleIncomingPacket+0x2c>
 8001322:	b1a3      	cbz	r3, 800134e <_HandleIncomingPacket+0x46>
 8001324:	3b02      	subs	r3, #2
 8001326:	2b05      	cmp	r3, #5
 8001328:	d80f      	bhi.n	800134a <_HandleIncomingPacket+0x42>
 800132a:	e8df f003 	tbb	[pc, r3]
 800132e:	1613      	.short	0x1613
 8001330:	221f1c19 	.word	0x221f1c19
 8001334:	2b80      	cmp	r3, #128	@ 0x80
 8001336:	d01f      	beq.n	8001378 <_HandleIncomingPacket+0x70>
      if (Cmd >= 128) { // Unknown extended command. Dummy read its parameter.
 8001338:	061b      	lsls	r3, r3, #24
 800133a:	d508      	bpl.n	800134e <_HandleIncomingPacket+0x46>
        SEGGER_RTT_ReadNoLock(CHANNEL_ID_DOWN, &Cmd, 1);
 800133c:	2201      	movs	r2, #1
 800133e:	f10d 0107 	add.w	r1, sp, #7
 8001342:	4610      	mov	r0, r2
 8001344:	f7ff fee4 	bl	8001110 <SEGGER_RTT_ReadNoLock>
}
 8001348:	e001      	b.n	800134e <_HandleIncomingPacket+0x46>
      SEGGER_SYSVIEW_Start();
 800134a:	f7ff ff7d 	bl	8001248 <SEGGER_SYSVIEW_Start>
}
 800134e:	b003      	add	sp, #12
 8001350:	f85d fb04 	ldr.w	pc, [sp], #4
      SEGGER_SYSVIEW_Stop();
 8001354:	f000 f93a 	bl	80015cc <SEGGER_SYSVIEW_Stop>
      break;
 8001358:	e7f9      	b.n	800134e <_HandleIncomingPacket+0x46>
      SEGGER_SYSVIEW_RecordSystime();
 800135a:	f000 f91d 	bl	8001598 <SEGGER_SYSVIEW_RecordSystime>
      break;
 800135e:	e7f6      	b.n	800134e <_HandleIncomingPacket+0x46>
      SEGGER_SYSVIEW_SendTaskList();
 8001360:	f7ff ff3c 	bl	80011dc <SEGGER_SYSVIEW_SendTaskList>
      break;
 8001364:	e7f3      	b.n	800134e <_HandleIncomingPacket+0x46>
      SEGGER_SYSVIEW_GetSysDesc();
 8001366:	f000 f949 	bl	80015fc <SEGGER_SYSVIEW_GetSysDesc>
      break;
 800136a:	e7f0      	b.n	800134e <_HandleIncomingPacket+0x46>
      SEGGER_SYSVIEW_SendNumModules();
 800136c:	f7ff ff4c 	bl	8001208 <SEGGER_SYSVIEW_SendNumModules>
      break;
 8001370:	e7ed      	b.n	800134e <_HandleIncomingPacket+0x46>
      SEGGER_SYSVIEW_SendModuleDescription();
 8001372:	f7ff ff3d 	bl	80011f0 <SEGGER_SYSVIEW_SendModuleDescription>
      break;
 8001376:	e7ea      	b.n	800134e <_HandleIncomingPacket+0x46>
      Status = SEGGER_RTT_ReadNoLock(CHANNEL_ID_DOWN, &Cmd, 1);
 8001378:	2201      	movs	r2, #1
 800137a:	f10d 0107 	add.w	r1, sp, #7
 800137e:	4610      	mov	r0, r2
 8001380:	f7ff fec6 	bl	8001110 <SEGGER_RTT_ReadNoLock>
      if (Status > 0) {
 8001384:	2800      	cmp	r0, #0
 8001386:	dde2      	ble.n	800134e <_HandleIncomingPacket+0x46>
        SEGGER_SYSVIEW_SendModule(Cmd);
 8001388:	f89d 0007 	ldrb.w	r0, [sp, #7]
 800138c:	f000 fa0c 	bl	80017a8 <SEGGER_SYSVIEW_SendModule>
 8001390:	e7dd      	b.n	800134e <_HandleIncomingPacket+0x46>
	...

08001394 <_SendPacket>:
static void _SendPacket(U8* pStartPacket, U8* pEndPacket, unsigned int EventId) {
 8001394:	e92d 41ff 	stmdb	sp!, {r0, r1, r2, r3, r4, r5, r6, r7, r8, lr}
  if (_SYSVIEW_Globals.EnableState == 1) {  // Enabled, no dropped packets remaining
 8001398:	4c4d      	ldr	r4, [pc, #308]	@ (80014d0 <_SendPacket+0x13c>)
static void _SendPacket(U8* pStartPacket, U8* pEndPacket, unsigned int EventId) {
 800139a:	4606      	mov	r6, r0
 800139c:	460f      	mov	r7, r1
 800139e:	4615      	mov	r5, r2
  if (_SYSVIEW_Globals.EnableState == 1) {  // Enabled, no dropped packets remaining
 80013a0:	7823      	ldrb	r3, [r4, #0]
 80013a2:	2b01      	cmp	r3, #1
 80013a4:	d123      	bne.n	80013ee <_SendPacket+0x5a>
  if (EventId < 32) {
 80013a6:	2d1f      	cmp	r5, #31
 80013a8:	d96d      	bls.n	8001486 <_SendPacket+0xf2>
    NumBytes = pEndPacket - pStartPacket;
 80013aa:	1bbb      	subs	r3, r7, r6
    if (NumBytes > 127) {
 80013ac:	2b7f      	cmp	r3, #127	@ 0x7f
      *--pStartPacket = NumBytes | 0x80;
 80013ae:	b2da      	uxtb	r2, r3
      *--pStartPacket = (NumBytes >> 7);
 80013b0:	bf87      	ittee	hi
 80013b2:	09db      	lsrhi	r3, r3, #7
      *--pStartPacket = NumBytes | 0x80;
 80013b4:	f062 027f 	ornhi	r2, r2, #127	@ 0x7f
      *--pStartPacket = NumBytes;
 80013b8:	f106 33ff 	addls.w	r3, r6, #4294967295
 80013bc:	f806 2c01 	strbls.w	r2, [r6, #-1]
      *--pStartPacket = (NumBytes >> 7);
 80013c0:	bf82      	ittt	hi
 80013c2:	f806 3c01 	strbhi.w	r3, [r6, #-1]
      *--pStartPacket = NumBytes | 0x80;
 80013c6:	1eb3      	subhi	r3, r6, #2
 80013c8:	f806 2c02 	strbhi.w	r2, [r6, #-2]
    if (EventId > 127) {
 80013cc:	2d7f      	cmp	r5, #127	@ 0x7f
    *--pStartPacket = EventId;
 80013ce:	b2ea      	uxtb	r2, r5
      *--pStartPacket = (EventId >> 7);
 80013d0:	bf83      	ittte	hi
 80013d2:	09ed      	lsrhi	r5, r5, #7
      *--pStartPacket = EventId | 0x80;
 80013d4:	1e99      	subhi	r1, r3, #2
 80013d6:	f062 027f 	ornhi	r2, r2, #127	@ 0x7f
      *--pStartPacket = EventId;
 80013da:	f103 31ff 	addls.w	r1, r3, #4294967295
      *--pStartPacket = (EventId >> 7);
 80013de:	bf86      	itte	hi
 80013e0:	f803 5c01 	strbhi.w	r5, [r3, #-1]
      *--pStartPacket = EventId | 0x80;
 80013e4:	f803 2c02 	strbhi.w	r2, [r3, #-2]
      *--pStartPacket = EventId;
 80013e8:	f803 2c01 	strbls.w	r2, [r3, #-1]
 80013ec:	e054      	b.n	8001498 <_SendPacket+0x104>
  if (_SYSVIEW_Globals.EnableState == 0) {
 80013ee:	b33b      	cbz	r3, 8001440 <_SendPacket+0xac>
  if (_SYSVIEW_Globals.EnableState == 2) {
 80013f0:	2b02      	cmp	r3, #2
 80013f2:	d1d8      	bne.n	80013a6 <_SendPacket+0x12>
  aPacket[0] = SYSVIEW_EVTID_OVERFLOW;      // 1
 80013f4:	2301      	movs	r3, #1
  ENCODE_U32(pPayload, _SYSVIEW_Globals.DropCount);
 80013f6:	6962      	ldr	r2, [r4, #20]
 80013f8:	f10d 0005 	add.w	r0, sp, #5
  aPacket[0] = SYSVIEW_EVTID_OVERFLOW;      // 1
 80013fc:	f88d 3004 	strb.w	r3, [sp, #4]
  ENCODE_U32(pPayload, _SYSVIEW_Globals.DropCount);
 8001400:	2a7f      	cmp	r2, #127	@ 0x7f
 8001402:	b2d3      	uxtb	r3, r2
 8001404:	f100 0101 	add.w	r1, r0, #1
 8001408:	d82b      	bhi.n	8001462 <_SendPacket+0xce>
 800140a:	7003      	strb	r3, [r0, #0]
  TimeStamp  = SEGGER_SYSVIEW_GET_TIMESTAMP();
 800140c:	4b31      	ldr	r3, [pc, #196]	@ (80014d4 <_SendPacket+0x140>)
 800140e:	f8d3 8004 	ldr.w	r8, [r3, #4]
  Delta = TimeStamp - _SYSVIEW_Globals.LastTxTimeStamp;
 8001412:	68e3      	ldr	r3, [r4, #12]
 8001414:	eba8 0303 	sub.w	r3, r8, r3
  ENCODE_U32(pPayload, Delta);
 8001418:	2b7f      	cmp	r3, #127	@ 0x7f
 800141a:	b2d8      	uxtb	r0, r3
 800141c:	f101 0201 	add.w	r2, r1, #1
 8001420:	d826      	bhi.n	8001470 <_SendPacket+0xdc>
 8001422:	7008      	strb	r0, [r1, #0]
  Status = SEGGER_RTT_WriteSkipNoLock(CHANNEL_ID_UP, aPacket, pPayload - aPacket);
 8001424:	a901      	add	r1, sp, #4
 8001426:	2001      	movs	r0, #1
 8001428:	1a52      	subs	r2, r2, r1
 800142a:	f7fe ff09 	bl	8000240 <SEGGER_RTT_ASM_WriteSkipNoLock>
  if (Status) {
 800142e:	b330      	cbz	r0, 800147e <_SendPacket+0xea>
    _SYSVIEW_Globals.EnableState--; // EnableState has been 2, will be 1. Always.
 8001430:	7823      	ldrb	r3, [r4, #0]
    _SYSVIEW_Globals.LastTxTimeStamp = TimeStamp;
 8001432:	f8c4 800c 	str.w	r8, [r4, #12]
    _SYSVIEW_Globals.EnableState--; // EnableState has been 2, will be 1. Always.
 8001436:	3b01      	subs	r3, #1
 8001438:	7023      	strb	r3, [r4, #0]
    if (_SYSVIEW_Globals.EnableState != 1) {
 800143a:	7823      	ldrb	r3, [r4, #0]
 800143c:	2b01      	cmp	r3, #1
 800143e:	d0b2      	beq.n	80013a6 <_SendPacket+0x12>
  if (SEGGER_RTT_HASDATA(CHANNEL_ID_DOWN)) {
 8001440:	4b25      	ldr	r3, [pc, #148]	@ (80014d8 <_SendPacket+0x144>)
 8001442:	f8d3 2084 	ldr.w	r2, [r3, #132]	@ 0x84
 8001446:	f8d3 3088 	ldr.w	r3, [r3, #136]	@ 0x88
 800144a:	429a      	cmp	r2, r3
 800144c:	d006      	beq.n	800145c <_SendPacket+0xc8>
    if (_SYSVIEW_Globals.RecursionCnt == 0) {   // Avoid uncontrolled nesting. This way, this routine can call itself once, but no more often than that.
 800144e:	78a5      	ldrb	r5, [r4, #2]
 8001450:	b925      	cbnz	r5, 800145c <_SendPacket+0xc8>
      _SYSVIEW_Globals.RecursionCnt = 1;
 8001452:	2301      	movs	r3, #1
 8001454:	70a3      	strb	r3, [r4, #2]
      _HandleIncomingPacket();
 8001456:	f7ff ff57 	bl	8001308 <_HandleIncomingPacket>
      _SYSVIEW_Globals.RecursionCnt = 0;
 800145a:	70a5      	strb	r5, [r4, #2]
}
 800145c:	b004      	add	sp, #16
 800145e:	e8bd 81f0 	ldmia.w	sp!, {r4, r5, r6, r7, r8, pc}
  ENCODE_U32(pPayload, _SYSVIEW_Globals.DropCount);
 8001462:	f063 037f 	orn	r3, r3, #127	@ 0x7f
 8001466:	09d2      	lsrs	r2, r2, #7
 8001468:	4608      	mov	r0, r1
 800146a:	f801 3c01 	strb.w	r3, [r1, #-1]
 800146e:	e7c7      	b.n	8001400 <_SendPacket+0x6c>
  ENCODE_U32(pPayload, Delta);
 8001470:	f060 007f 	orn	r0, r0, #127	@ 0x7f
 8001474:	09db      	lsrs	r3, r3, #7
 8001476:	4611      	mov	r1, r2
 8001478:	f802 0c01 	strb.w	r0, [r2, #-1]
 800147c:	e7cc      	b.n	8001418 <_SendPacket+0x84>
    _SYSVIEW_Globals.DropCount++;
 800147e:	6963      	ldr	r3, [r4, #20]
 8001480:	3301      	adds	r3, #1
 8001482:	6163      	str	r3, [r4, #20]
 8001484:	e7d9      	b.n	800143a <_SendPacket+0xa6>
    if (_SYSVIEW_Globals.DisabledEvents & ((U32)1u << EventId)) {
 8001486:	69e3      	ldr	r3, [r4, #28]
 8001488:	40eb      	lsrs	r3, r5
 800148a:	07db      	lsls	r3, r3, #31
 800148c:	d4d8      	bmi.n	8001440 <_SendPacket+0xac>
  if (EventId < 24) {
 800148e:	2d17      	cmp	r5, #23
 8001490:	d88b      	bhi.n	80013aa <_SendPacket+0x16>
    *--pStartPacket = EventId;
 8001492:	1e71      	subs	r1, r6, #1
 8001494:	f806 5c01 	strb.w	r5, [r6, #-1]
  TimeStamp  = SEGGER_SYSVIEW_GET_TIMESTAMP();
 8001498:	4b0e      	ldr	r3, [pc, #56]	@ (80014d4 <_SendPacket+0x140>)
 800149a:	685d      	ldr	r5, [r3, #4]
  Delta = TimeStamp - _SYSVIEW_Globals.LastTxTimeStamp;
 800149c:	68e3      	ldr	r3, [r4, #12]
 800149e:	1aeb      	subs	r3, r5, r3
  ENCODE_U32(pEndPacket, Delta);
 80014a0:	2b7f      	cmp	r3, #127	@ 0x7f
 80014a2:	b2d8      	uxtb	r0, r3
 80014a4:	f107 0201 	add.w	r2, r7, #1
 80014a8:	d807      	bhi.n	80014ba <_SendPacket+0x126>
 80014aa:	7038      	strb	r0, [r7, #0]
  Status = SEGGER_RTT_WriteSkipNoLock(CHANNEL_ID_UP, pStartPacket, pEndPacket - pStartPacket);
 80014ac:	1a52      	subs	r2, r2, r1
 80014ae:	2001      	movs	r0, #1
 80014b0:	f7fe fec6 	bl	8000240 <SEGGER_RTT_ASM_WriteSkipNoLock>
  if (Status) {
 80014b4:	b140      	cbz	r0, 80014c8 <_SendPacket+0x134>
    _SYSVIEW_Globals.LastTxTimeStamp = TimeStamp;
 80014b6:	60e5      	str	r5, [r4, #12]
 80014b8:	e7c2      	b.n	8001440 <_SendPacket+0xac>
  ENCODE_U32(pEndPacket, Delta);
 80014ba:	f060 007f 	orn	r0, r0, #127	@ 0x7f
 80014be:	09db      	lsrs	r3, r3, #7
 80014c0:	4617      	mov	r7, r2
 80014c2:	f802 0c01 	strb.w	r0, [r2, #-1]
 80014c6:	e7eb      	b.n	80014a0 <_SendPacket+0x10c>
    _SYSVIEW_Globals.EnableState++; // EnableState has been 1, will be 2. Always.
 80014c8:	7823      	ldrb	r3, [r4, #0]
 80014ca:	3301      	adds	r3, #1
 80014cc:	7023      	strb	r3, [r4, #0]
 80014ce:	e7b7      	b.n	8001440 <_SendPacket+0xac>
 80014d0:	20000a5c 	.word	0x20000a5c
 80014d4:	e0001000 	.word	0xe0001000
 80014d8:	200008cc 	.word	0x200008cc

080014dc <SEGGER_SYSVIEW_RecordVoid>:
void SEGGER_SYSVIEW_RecordVoid(unsigned int EventID) {
 80014dc:	4602      	mov	r2, r0
 80014de:	b510      	push	{r4, lr}
  RECORD_START(SEGGER_SYSVIEW_INFO_SIZE);
 80014e0:	f3ef 8411 	mrs	r4, BASEPRI
 80014e4:	f04f 0120 	mov.w	r1, #32
 80014e8:	f381 8811 	msr	BASEPRI, r1
  _SendPacket(pPayloadStart, pPayloadStart, EventID);
 80014ec:	4903      	ldr	r1, [pc, #12]	@ (80014fc <SEGGER_SYSVIEW_RecordVoid+0x20>)
 80014ee:	4608      	mov	r0, r1
 80014f0:	f7ff ff50 	bl	8001394 <_SendPacket>
  RECORD_END();
 80014f4:	f384 8811 	msr	BASEPRI, r4
}
 80014f8:	bd10      	pop	{r4, pc}
 80014fa:	bf00      	nop
 80014fc:	20000978 	.word	0x20000978

08001500 <SEGGER_SYSVIEW_RecordU32>:
void SEGGER_SYSVIEW_RecordU32(unsigned int EventID, U32 Value) {
 8001500:	b538      	push	{r3, r4, r5, lr}
 8001502:	4602      	mov	r2, r0
 8001504:	460b      	mov	r3, r1
  RECORD_START(SEGGER_SYSVIEW_INFO_SIZE + SEGGER_SYSVIEW_QUANTA_U32);
 8001506:	f3ef 8511 	mrs	r5, BASEPRI
 800150a:	f04f 0120 	mov.w	r1, #32
 800150e:	f381 8811 	msr	BASEPRI, r1
  ENCODE_U32(pPayload, Value);
 8001512:	480a      	ldr	r0, [pc, #40]	@ (800153c <SEGGER_SYSVIEW_RecordU32+0x3c>)
 8001514:	2b7f      	cmp	r3, #127	@ 0x7f
 8001516:	b2dc      	uxtb	r4, r3
 8001518:	f100 0101 	add.w	r1, r0, #1
 800151c:	d806      	bhi.n	800152c <SEGGER_SYSVIEW_RecordU32+0x2c>
 800151e:	7004      	strb	r4, [r0, #0]
  _SendPacket(pPayloadStart, pPayload, EventID);
 8001520:	4806      	ldr	r0, [pc, #24]	@ (800153c <SEGGER_SYSVIEW_RecordU32+0x3c>)
 8001522:	f7ff ff37 	bl	8001394 <_SendPacket>
  RECORD_END();
 8001526:	f385 8811 	msr	BASEPRI, r5
}
 800152a:	bd38      	pop	{r3, r4, r5, pc}
  ENCODE_U32(pPayload, Value);
 800152c:	f064 047f 	orn	r4, r4, #127	@ 0x7f
 8001530:	09db      	lsrs	r3, r3, #7
 8001532:	4608      	mov	r0, r1
 8001534:	f801 4c01 	strb.w	r4, [r1, #-1]
 8001538:	e7ec      	b.n	8001514 <SEGGER_SYSVIEW_RecordU32+0x14>
 800153a:	bf00      	nop
 800153c:	20000978 	.word	0x20000978

08001540 <SEGGER_SYSVIEW_RecordU32x2>:
void SEGGER_SYSVIEW_RecordU32x2(unsigned int EventID, U32 Para0, U32 Para1) {
 8001540:	b570      	push	{r4, r5, r6, lr}
 8001542:	460b      	mov	r3, r1
  RECORD_START(SEGGER_SYSVIEW_INFO_SIZE + 2 * SEGGER_SYSVIEW_QUANTA_U32);
 8001544:	f3ef 8511 	mrs	r5, BASEPRI
 8001548:	f04f 0120 	mov.w	r1, #32
 800154c:	f381 8811 	msr	BASEPRI, r1
  ENCODE_U32(pPayload, Para0);
 8001550:	4e10      	ldr	r6, [pc, #64]	@ (8001594 <SEGGER_SYSVIEW_RecordU32x2+0x54>)
 8001552:	2b7f      	cmp	r3, #127	@ 0x7f
 8001554:	b2d9      	uxtb	r1, r3
 8001556:	f106 0401 	add.w	r4, r6, #1
 800155a:	d80d      	bhi.n	8001578 <SEGGER_SYSVIEW_RecordU32x2+0x38>
 800155c:	7031      	strb	r1, [r6, #0]
  ENCODE_U32(pPayload, Para1);
 800155e:	2a7f      	cmp	r2, #127	@ 0x7f
 8001560:	b2d3      	uxtb	r3, r2
 8001562:	f104 0101 	add.w	r1, r4, #1
 8001566:	d80e      	bhi.n	8001586 <SEGGER_SYSVIEW_RecordU32x2+0x46>
  _SendPacket(pPayloadStart, pPayload, EventID);
 8001568:	4602      	mov	r2, r0
  ENCODE_U32(pPayload, Para1);
 800156a:	7023      	strb	r3, [r4, #0]
  _SendPacket(pPayloadStart, pPayload, EventID);
 800156c:	4809      	ldr	r0, [pc, #36]	@ (8001594 <SEGGER_SYSVIEW_RecordU32x2+0x54>)
 800156e:	f7ff ff11 	bl	8001394 <_SendPacket>
  RECORD_END();
 8001572:	f385 8811 	msr	BASEPRI, r5
}
 8001576:	bd70      	pop	{r4, r5, r6, pc}
  ENCODE_U32(pPayload, Para0);
 8001578:	f061 017f 	orn	r1, r1, #127	@ 0x7f
 800157c:	09db      	lsrs	r3, r3, #7
 800157e:	4626      	mov	r6, r4
 8001580:	f804 1c01 	strb.w	r1, [r4, #-1]
 8001584:	e7e5      	b.n	8001552 <SEGGER_SYSVIEW_RecordU32x2+0x12>
  ENCODE_U32(pPayload, Para1);
 8001586:	f063 037f 	orn	r3, r3, #127	@ 0x7f
 800158a:	09d2      	lsrs	r2, r2, #7
 800158c:	460c      	mov	r4, r1
 800158e:	f801 3c01 	strb.w	r3, [r1, #-1]
 8001592:	e7e4      	b.n	800155e <SEGGER_SYSVIEW_RecordU32x2+0x1e>
 8001594:	20000978 	.word	0x20000978

08001598 <SEGGER_SYSVIEW_RecordSystime>:
void SEGGER_SYSVIEW_RecordSystime(void) {
 8001598:	b508      	push	{r3, lr}
  if (_SYSVIEW_Globals.pOSAPI && _SYSVIEW_Globals.pOSAPI->pfGetTime) {
 800159a:	4b0a      	ldr	r3, [pc, #40]	@ (80015c4 <SEGGER_SYSVIEW_RecordSystime+0x2c>)
 800159c:	6a1b      	ldr	r3, [r3, #32]
 800159e:	b14b      	cbz	r3, 80015b4 <SEGGER_SYSVIEW_RecordSystime+0x1c>
 80015a0:	681b      	ldr	r3, [r3, #0]
 80015a2:	b13b      	cbz	r3, 80015b4 <SEGGER_SYSVIEW_RecordSystime+0x1c>
    Systime = _SYSVIEW_Globals.pOSAPI->pfGetTime();
 80015a4:	4798      	blx	r3
 80015a6:	460a      	mov	r2, r1
    SEGGER_SYSVIEW_RecordU32x2(SYSVIEW_EVTID_SYSTIME_US,
 80015a8:	4601      	mov	r1, r0
 80015aa:	200d      	movs	r0, #13
}
 80015ac:	e8bd 4008 	ldmia.w	sp!, {r3, lr}
    SEGGER_SYSVIEW_RecordU32x2(SYSVIEW_EVTID_SYSTIME_US,
 80015b0:	f7ff bfc6 	b.w	8001540 <SEGGER_SYSVIEW_RecordU32x2>
    SEGGER_SYSVIEW_RecordU32(SYSVIEW_EVTID_SYSTIME_CYCLES, SEGGER_SYSVIEW_GET_TIMESTAMP());
 80015b4:	4b04      	ldr	r3, [pc, #16]	@ (80015c8 <SEGGER_SYSVIEW_RecordSystime+0x30>)
 80015b6:	200c      	movs	r0, #12
 80015b8:	6859      	ldr	r1, [r3, #4]
}
 80015ba:	e8bd 4008 	ldmia.w	sp!, {r3, lr}
    SEGGER_SYSVIEW_RecordU32(SYSVIEW_EVTID_SYSTIME_CYCLES, SEGGER_SYSVIEW_GET_TIMESTAMP());
 80015be:	f7ff bf9f 	b.w	8001500 <SEGGER_SYSVIEW_RecordU32>
 80015c2:	bf00      	nop
 80015c4:	20000a5c 	.word	0x20000a5c
 80015c8:	e0001000 	.word	0xe0001000

080015cc <SEGGER_SYSVIEW_Stop>:
void SEGGER_SYSVIEW_Stop(void) {
 80015cc:	b538      	push	{r3, r4, r5, lr}
  RECORD_START(SEGGER_SYSVIEW_INFO_SIZE);
 80015ce:	f3ef 8511 	mrs	r5, BASEPRI
 80015d2:	f04f 0120 	mov.w	r1, #32
 80015d6:	f381 8811 	msr	BASEPRI, r1
  if (_SYSVIEW_Globals.EnableState) {
 80015da:	4c06      	ldr	r4, [pc, #24]	@ (80015f4 <SEGGER_SYSVIEW_Stop+0x28>)
 80015dc:	7823      	ldrb	r3, [r4, #0]
 80015de:	b133      	cbz	r3, 80015ee <SEGGER_SYSVIEW_Stop+0x22>
    _SendPacket(pPayloadStart, pPayloadStart, SYSVIEW_EVTID_TRACE_STOP);
 80015e0:	4905      	ldr	r1, [pc, #20]	@ (80015f8 <SEGGER_SYSVIEW_Stop+0x2c>)
 80015e2:	220b      	movs	r2, #11
 80015e4:	4608      	mov	r0, r1
 80015e6:	f7ff fed5 	bl	8001394 <_SendPacket>
    _SYSVIEW_Globals.EnableState = 0;
 80015ea:	2300      	movs	r3, #0
 80015ec:	7023      	strb	r3, [r4, #0]
  RECORD_END();
 80015ee:	f385 8811 	msr	BASEPRI, r5
}
 80015f2:	bd38      	pop	{r3, r4, r5, pc}
 80015f4:	20000a5c 	.word	0x20000a5c
 80015f8:	20000978 	.word	0x20000978

080015fc <SEGGER_SYSVIEW_GetSysDesc>:
void SEGGER_SYSVIEW_GetSysDesc(void) {
 80015fc:	b570      	push	{r4, r5, r6, lr}
  RECORD_START(SEGGER_SYSVIEW_INFO_SIZE + 4 * SEGGER_SYSVIEW_QUANTA_U32);
 80015fe:	f3ef 8511 	mrs	r5, BASEPRI
 8001602:	f04f 0120 	mov.w	r1, #32
 8001606:	f381 8811 	msr	BASEPRI, r1
  ENCODE_U32(pPayload, _SYSVIEW_Globals.SysFreq);
 800160a:	4c1c      	ldr	r4, [pc, #112]	@ (800167c <SEGGER_SYSVIEW_GetSysDesc+0x80>)
 800160c:	481c      	ldr	r0, [pc, #112]	@ (8001680 <SEGGER_SYSVIEW_GetSysDesc+0x84>)
 800160e:	6861      	ldr	r1, [r4, #4]
 8001610:	297f      	cmp	r1, #127	@ 0x7f
 8001612:	b2ca      	uxtb	r2, r1
 8001614:	f100 0301 	add.w	r3, r0, #1
 8001618:	d81a      	bhi.n	8001650 <SEGGER_SYSVIEW_GetSysDesc+0x54>
 800161a:	7002      	strb	r2, [r0, #0]
  ENCODE_U32(pPayload, _SYSVIEW_Globals.CPUFreq);
 800161c:	68a0      	ldr	r0, [r4, #8]
 800161e:	287f      	cmp	r0, #127	@ 0x7f
 8001620:	b2c2      	uxtb	r2, r0
 8001622:	f103 0101 	add.w	r1, r3, #1
 8001626:	d81a      	bhi.n	800165e <SEGGER_SYSVIEW_GetSysDesc+0x62>
 8001628:	701a      	strb	r2, [r3, #0]
  ENCODE_U32(pPayload, _SYSVIEW_Globals.RAMBaseAddress);
 800162a:	6922      	ldr	r2, [r4, #16]
 800162c:	2a7f      	cmp	r2, #127	@ 0x7f
 800162e:	b2d3      	uxtb	r3, r2
 8001630:	d81c      	bhi.n	800166c <SEGGER_SYSVIEW_GetSysDesc+0x70>
 8001632:	700b      	strb	r3, [r1, #0]
  ENCODE_U32(pPayload, SEGGER_SYSVIEW_ID_SHIFT);
 8001634:	2302      	movs	r3, #2
  _SendPacket(pPayloadStart, pPayload, SYSVIEW_EVTID_INIT);
 8001636:	2218      	movs	r2, #24
 8001638:	4811      	ldr	r0, [pc, #68]	@ (8001680 <SEGGER_SYSVIEW_GetSysDesc+0x84>)
  ENCODE_U32(pPayload, SEGGER_SYSVIEW_ID_SHIFT);
 800163a:	704b      	strb	r3, [r1, #1]
  _SendPacket(pPayloadStart, pPayload, SYSVIEW_EVTID_INIT);
 800163c:	4419      	add	r1, r3
 800163e:	f7ff fea9 	bl	8001394 <_SendPacket>
  RECORD_END();
 8001642:	f385 8811 	msr	BASEPRI, r5
  if (_SYSVIEW_Globals.pfSendSysDesc) {
 8001646:	6a63      	ldr	r3, [r4, #36]	@ 0x24
 8001648:	b1b3      	cbz	r3, 8001678 <SEGGER_SYSVIEW_GetSysDesc+0x7c>
}
 800164a:	e8bd 4070 	ldmia.w	sp!, {r4, r5, r6, lr}
    _SYSVIEW_Globals.pfSendSysDesc();
 800164e:	4718      	bx	r3
  ENCODE_U32(pPayload, _SYSVIEW_Globals.SysFreq);
 8001650:	f062 027f 	orn	r2, r2, #127	@ 0x7f
 8001654:	09c9      	lsrs	r1, r1, #7
 8001656:	4618      	mov	r0, r3
 8001658:	f803 2c01 	strb.w	r2, [r3, #-1]
 800165c:	e7d8      	b.n	8001610 <SEGGER_SYSVIEW_GetSysDesc+0x14>
  ENCODE_U32(pPayload, _SYSVIEW_Globals.CPUFreq);
 800165e:	f062 027f 	orn	r2, r2, #127	@ 0x7f
 8001662:	09c0      	lsrs	r0, r0, #7
 8001664:	460b      	mov	r3, r1
 8001666:	f801 2c01 	strb.w	r2, [r1, #-1]
 800166a:	e7d8      	b.n	800161e <SEGGER_SYSVIEW_GetSysDesc+0x22>
  ENCODE_U32(pPayload, _SYSVIEW_Globals.RAMBaseAddress);
 800166c:	f063 037f 	orn	r3, r3, #127	@ 0x7f
 8001670:	09d2      	lsrs	r2, r2, #7
 8001672:	f801 3b01 	strb.w	r3, [r1], #1
 8001676:	e7d9      	b.n	800162c <SEGGER_SYSVIEW_GetSysDesc+0x30>
}
 8001678:	bd70      	pop	{r4, r5, r6, pc}
 800167a:	bf00      	nop
 800167c:	20000a5c 	.word	0x20000a5c
 8001680:	20000978 	.word	0x20000978

08001684 <SEGGER_SYSVIEW_RecordEnterISR>:
void SEGGER_SYSVIEW_RecordEnterISR(void) {
 8001684:	b510      	push	{r4, lr}
  RECORD_START(SEGGER_SYSVIEW_INFO_SIZE + SEGGER_SYSVIEW_QUANTA_U32);
 8001686:	f3ef 8411 	mrs	r4, BASEPRI
 800168a:	f04f 0120 	mov.w	r1, #32
 800168e:	f381 8811 	msr	BASEPRI, r1
  v = SEGGER_SYSVIEW_GET_INTERRUPT_ID();
 8001692:	f04f 23e0 	mov.w	r3, #3758153728	@ 0xe000e000
  _SendPacket(pPayloadStart, pPayload, SYSVIEW_EVTID_ISR_ENTER);
 8001696:	480c      	ldr	r0, [pc, #48]	@ (80016c8 <SEGGER_SYSVIEW_RecordEnterISR+0x44>)
  v = SEGGER_SYSVIEW_GET_INTERRUPT_ID();
 8001698:	f8d3 1d04 	ldr.w	r1, [r3, #3332]	@ 0xd04
  ENCODE_U32(pPayload, v);
 800169c:	b2ca      	uxtb	r2, r1
 800169e:	f411 7fc0 	tst.w	r1, #384	@ 0x180
  v = SEGGER_SYSVIEW_GET_INTERRUPT_ID();
 80016a2:	f3c1 0308 	ubfx	r3, r1, #0, #9
  ENCODE_U32(pPayload, v);
 80016a6:	bf1d      	ittte	ne
 80016a8:	f062 027f 	ornne	r2, r2, #127	@ 0x7f
 80016ac:	4907      	ldrne	r1, [pc, #28]	@ (80016cc <SEGGER_SYSVIEW_RecordEnterISR+0x48>)
 80016ae:	09db      	lsrne	r3, r3, #7
 80016b0:	4905      	ldreq	r1, [pc, #20]	@ (80016c8 <SEGGER_SYSVIEW_RecordEnterISR+0x44>)
 80016b2:	bf1c      	itt	ne
 80016b4:	710a      	strbne	r2, [r1, #4]
 80016b6:	3105      	addne	r1, #5
  _SendPacket(pPayloadStart, pPayload, SYSVIEW_EVTID_ISR_ENTER);
 80016b8:	2202      	movs	r2, #2
  ENCODE_U32(pPayload, v);
 80016ba:	f801 3b01 	strb.w	r3, [r1], #1
  _SendPacket(pPayloadStart, pPayload, SYSVIEW_EVTID_ISR_ENTER);
 80016be:	f7ff fe69 	bl	8001394 <_SendPacket>
  RECORD_END();
 80016c2:	f384 8811 	msr	BASEPRI, r4
}
 80016c6:	bd10      	pop	{r4, pc}
 80016c8:	20000978 	.word	0x20000978
 80016cc:	20000974 	.word	0x20000974

080016d0 <SEGGER_SYSVIEW_RecordExitISR>:
void SEGGER_SYSVIEW_RecordExitISR(void) {
 80016d0:	b510      	push	{r4, lr}
  RECORD_START(SEGGER_SYSVIEW_INFO_SIZE);
 80016d2:	f3ef 8411 	mrs	r4, BASEPRI
 80016d6:	f04f 0120 	mov.w	r1, #32
 80016da:	f381 8811 	msr	BASEPRI, r1
  _SendPacket(pPayloadStart, pPayloadStart, SYSVIEW_EVTID_ISR_EXIT);
 80016de:	4904      	ldr	r1, [pc, #16]	@ (80016f0 <SEGGER_SYSVIEW_RecordExitISR+0x20>)
 80016e0:	2203      	movs	r2, #3
 80016e2:	4608      	mov	r0, r1
 80016e4:	f7ff fe56 	bl	8001394 <_SendPacket>
  RECORD_END();
 80016e8:	f384 8811 	msr	BASEPRI, r4
}
 80016ec:	bd10      	pop	{r4, pc}
 80016ee:	bf00      	nop
 80016f0:	20000978 	.word	0x20000978

080016f4 <SEGGER_SYSVIEW_OnIdle>:
void SEGGER_SYSVIEW_OnIdle(void) {
 80016f4:	b510      	push	{r4, lr}
  RECORD_START(SEGGER_SYSVIEW_INFO_SIZE);
 80016f6:	f3ef 8411 	mrs	r4, BASEPRI
 80016fa:	f04f 0120 	mov.w	r1, #32
 80016fe:	f381 8811 	msr	BASEPRI, r1
  _SendPacket(pPayloadStart, pPayloadStart, SYSVIEW_EVTID_IDLE);
 8001702:	4904      	ldr	r1, [pc, #16]	@ (8001714 <SEGGER_SYSVIEW_OnIdle+0x20>)
 8001704:	2211      	movs	r2, #17
 8001706:	4608      	mov	r0, r1
 8001708:	f7ff fe44 	bl	8001394 <_SendPacket>
  RECORD_END();
 800170c:	f384 8811 	msr	BASEPRI, r4
}
 8001710:	bd10      	pop	{r4, pc}
 8001712:	bf00      	nop
 8001714:	20000978 	.word	0x20000978

08001718 <SEGGER_SYSVIEW_OnTaskStartExec>:
void SEGGER_SYSVIEW_OnTaskStartExec(U32 TaskId) {
 8001718:	b510      	push	{r4, lr}
  RECORD_START(SEGGER_SYSVIEW_INFO_SIZE + SEGGER_SYSVIEW_QUANTA_U32);
 800171a:	f3ef 8411 	mrs	r4, BASEPRI
 800171e:	f04f 0120 	mov.w	r1, #32
 8001722:	f381 8811 	msr	BASEPRI, r1
  TaskId = SHRINK_ID(TaskId);
 8001726:	4b0c      	ldr	r3, [pc, #48]	@ (8001758 <SEGGER_SYSVIEW_OnTaskStartExec+0x40>)
  ENCODE_U32(pPayload, TaskId);
 8001728:	4a0c      	ldr	r2, [pc, #48]	@ (800175c <SEGGER_SYSVIEW_OnTaskStartExec+0x44>)
  TaskId = SHRINK_ID(TaskId);
 800172a:	691b      	ldr	r3, [r3, #16]
 800172c:	1ac0      	subs	r0, r0, r3
 800172e:	0880      	lsrs	r0, r0, #2
  ENCODE_U32(pPayload, TaskId);
 8001730:	287f      	cmp	r0, #127	@ 0x7f
 8001732:	b2c3      	uxtb	r3, r0
 8001734:	f102 0101 	add.w	r1, r2, #1
 8001738:	d807      	bhi.n	800174a <SEGGER_SYSVIEW_OnTaskStartExec+0x32>
 800173a:	7013      	strb	r3, [r2, #0]
  _SendPacket(pPayloadStart, pPayload, SYSVIEW_EVTID_TASK_START_EXEC);
 800173c:	2204      	movs	r2, #4
 800173e:	4807      	ldr	r0, [pc, #28]	@ (800175c <SEGGER_SYSVIEW_OnTaskStartExec+0x44>)
 8001740:	f7ff fe28 	bl	8001394 <_SendPacket>
  RECORD_END();
 8001744:	f384 8811 	msr	BASEPRI, r4
}
 8001748:	bd10      	pop	{r4, pc}
  ENCODE_U32(pPayload, TaskId);
 800174a:	f063 037f 	orn	r3, r3, #127	@ 0x7f
 800174e:	09c0      	lsrs	r0, r0, #7
 8001750:	460a      	mov	r2, r1
 8001752:	f801 3c01 	strb.w	r3, [r1, #-1]
 8001756:	e7eb      	b.n	8001730 <SEGGER_SYSVIEW_OnTaskStartExec+0x18>
 8001758:	20000a5c 	.word	0x20000a5c
 800175c:	20000978 	.word	0x20000978

08001760 <SEGGER_SYSVIEW_OnTaskStartReady>:
void SEGGER_SYSVIEW_OnTaskStartReady(U32 TaskId) {
 8001760:	b510      	push	{r4, lr}
  RECORD_START(SEGGER_SYSVIEW_INFO_SIZE + SEGGER_SYSVIEW_QUANTA_U32);
 8001762:	f3ef 8411 	mrs	r4, BASEPRI
 8001766:	f04f 0120 	mov.w	r1, #32
 800176a:	f381 8811 	msr	BASEPRI, r1
  TaskId = SHRINK_ID(TaskId);
 800176e:	4b0c      	ldr	r3, [pc, #48]	@ (80017a0 <SEGGER_SYSVIEW_OnTaskStartReady+0x40>)
  ENCODE_U32(pPayload, TaskId);
 8001770:	4a0c      	ldr	r2, [pc, #48]	@ (80017a4 <SEGGER_SYSVIEW_OnTaskStartReady+0x44>)
  TaskId = SHRINK_ID(TaskId);
 8001772:	691b      	ldr	r3, [r3, #16]
 8001774:	1ac0      	subs	r0, r0, r3
 8001776:	0880      	lsrs	r0, r0, #2
  ENCODE_U32(pPayload, TaskId);
 8001778:	287f      	cmp	r0, #127	@ 0x7f
 800177a:	b2c3      	uxtb	r3, r0
 800177c:	f102 0101 	add.w	r1, r2, #1
 8001780:	d807      	bhi.n	8001792 <SEGGER_SYSVIEW_OnTaskStartReady+0x32>
 8001782:	7013      	strb	r3, [r2, #0]
  _SendPacket(pPayloadStart, pPayload, SYSVIEW_EVTID_TASK_START_READY);
 8001784:	2206      	movs	r2, #6
 8001786:	4807      	ldr	r0, [pc, #28]	@ (80017a4 <SEGGER_SYSVIEW_OnTaskStartReady+0x44>)
 8001788:	f7ff fe04 	bl	8001394 <_SendPacket>
  RECORD_END();
 800178c:	f384 8811 	msr	BASEPRI, r4
}
 8001790:	bd10      	pop	{r4, pc}
  ENCODE_U32(pPayload, TaskId);
 8001792:	f063 037f 	orn	r3, r3, #127	@ 0x7f
 8001796:	09c0      	lsrs	r0, r0, #7
 8001798:	460a      	mov	r2, r1
 800179a:	f801 3c01 	strb.w	r3, [r1, #-1]
 800179e:	e7eb      	b.n	8001778 <SEGGER_SYSVIEW_OnTaskStartReady+0x18>
 80017a0:	20000a5c 	.word	0x20000a5c
 80017a4:	20000978 	.word	0x20000978

080017a8 <SEGGER_SYSVIEW_SendModule>:
void SEGGER_SYSVIEW_SendModule(U8 ModuleId) {
 80017a8:	b538      	push	{r3, r4, r5, lr}
  if (_pFirstModule != 0) {
 80017aa:	4b1c      	ldr	r3, [pc, #112]	@ (800181c <SEGGER_SYSVIEW_SendModule+0x74>)
 80017ac:	681c      	ldr	r4, [r3, #0]
 80017ae:	b984      	cbnz	r4, 80017d2 <SEGGER_SYSVIEW_SendModule+0x2a>
}
 80017b0:	bd38      	pop	{r3, r4, r5, pc}
      pModule = pModule->pNext;
 80017b2:	6924      	ldr	r4, [r4, #16]
      if (pModule == 0) {
 80017b4:	2c00      	cmp	r4, #0
 80017b6:	d0fb      	beq.n	80017b0 <SEGGER_SYSVIEW_SendModule+0x8>
    for (n = 0; n < ModuleId; n++) {
 80017b8:	3301      	adds	r3, #1
 80017ba:	4298      	cmp	r0, r3
 80017bc:	d8f9      	bhi.n	80017b2 <SEGGER_SYSVIEW_SendModule+0xa>
      RECORD_START(SEGGER_SYSVIEW_INFO_SIZE + 2 * SEGGER_SYSVIEW_QUANTA_U32 + 1 + SEGGER_SYSVIEW_MAX_STRING_LEN);
 80017be:	f3ef 8511 	mrs	r5, BASEPRI
 80017c2:	f04f 0120 	mov.w	r1, #32
 80017c6:	f381 8811 	msr	BASEPRI, r1
      ENCODE_U32(pPayload, ModuleId);
 80017ca:	287f      	cmp	r0, #127	@ 0x7f
 80017cc:	d804      	bhi.n	80017d8 <SEGGER_SYSVIEW_SendModule+0x30>
 80017ce:	4b14      	ldr	r3, [pc, #80]	@ (8001820 <SEGGER_SYSVIEW_SendModule+0x78>)
 80017d0:	e008      	b.n	80017e4 <SEGGER_SYSVIEW_SendModule+0x3c>
    for (n = 0; n < ModuleId; n++) {
 80017d2:	2300      	movs	r3, #0
 80017d4:	4602      	mov	r2, r0
 80017d6:	e7f0      	b.n	80017ba <SEGGER_SYSVIEW_SendModule+0x12>
      ENCODE_U32(pPayload, ModuleId);
 80017d8:	4b12      	ldr	r3, [pc, #72]	@ (8001824 <SEGGER_SYSVIEW_SendModule+0x7c>)
 80017da:	f060 007f 	orn	r0, r0, #127	@ 0x7f
 80017de:	2201      	movs	r2, #1
 80017e0:	7118      	strb	r0, [r3, #4]
 80017e2:	3305      	adds	r3, #5
 80017e4:	f803 2b01 	strb.w	r2, [r3], #1
      ENCODE_U32(pPayload, (pModule->EventOffset));
 80017e8:	68a1      	ldr	r1, [r4, #8]
 80017ea:	297f      	cmp	r1, #127	@ 0x7f
 80017ec:	b2ca      	uxtb	r2, r1
 80017ee:	f103 0001 	add.w	r0, r3, #1
 80017f2:	d80c      	bhi.n	800180e <SEGGER_SYSVIEW_SendModule+0x66>
 80017f4:	701a      	strb	r2, [r3, #0]
      pPayload = _EncodeStr(pPayload, pModule->sModule, SEGGER_SYSVIEW_MAX_STRING_LEN);
 80017f6:	2280      	movs	r2, #128	@ 0x80
 80017f8:	6821      	ldr	r1, [r4, #0]
 80017fa:	f7ff fccd 	bl	8001198 <_EncodeStr>
      _SendPacket(pPayloadStart, pPayload, SYSVIEW_EVTID_MODULEDESC);
 80017fe:	2216      	movs	r2, #22
      pPayload = _EncodeStr(pPayload, pModule->sModule, SEGGER_SYSVIEW_MAX_STRING_LEN);
 8001800:	4601      	mov	r1, r0
      _SendPacket(pPayloadStart, pPayload, SYSVIEW_EVTID_MODULEDESC);
 8001802:	4807      	ldr	r0, [pc, #28]	@ (8001820 <SEGGER_SYSVIEW_SendModule+0x78>)
 8001804:	f7ff fdc6 	bl	8001394 <_SendPacket>
      RECORD_END();
 8001808:	f385 8811 	msr	BASEPRI, r5
}
 800180c:	e7d0      	b.n	80017b0 <SEGGER_SYSVIEW_SendModule+0x8>
      ENCODE_U32(pPayload, (pModule->EventOffset));
 800180e:	f062 027f 	orn	r2, r2, #127	@ 0x7f
 8001812:	09c9      	lsrs	r1, r1, #7
 8001814:	4603      	mov	r3, r0
 8001816:	f800 2c01 	strb.w	r2, [r0, #-1]
 800181a:	e7e6      	b.n	80017ea <SEGGER_SYSVIEW_SendModule+0x42>
 800181c:	20000a58 	.word	0x20000a58
 8001820:	20000978 	.word	0x20000978
 8001824:	20000974 	.word	0x20000974

08001828 <_VPrintHost.isra.0>:
static int _VPrintHost(const char* s, U32 Options, va_list* pParamList) {
 8001828:	b5f0      	push	{r4, r5, r6, r7, lr}
 800182a:	460d      	mov	r5, r1
 800182c:	b091      	sub	sp, #68	@ 0x44
  p = s;
 800182e:	4606      	mov	r6, r0
  NumArguments = 0;
 8001830:	2400      	movs	r4, #0
    c = *p++;
 8001832:	f816 3b01 	ldrb.w	r3, [r6], #1
    if (c == 0) {
 8001836:	b183      	cbz	r3, 800185a <_VPrintHost.isra.0+0x32>
    if (c == '%') {
 8001838:	2b25      	cmp	r3, #37	@ 0x25
 800183a:	d131      	bne.n	80018a0 <_VPrintHost.isra.0+0x78>
      aParas[NumArguments++] = va_arg(*pParamList, int);
 800183c:	6811      	ldr	r1, [r2, #0]
 800183e:	af10      	add	r7, sp, #64	@ 0x40
      if (NumArguments == SEGGER_SYSVIEW_MAX_ARGUMENTS) {
 8001840:	2c0f      	cmp	r4, #15
      aParas[NumArguments++] = va_arg(*pParamList, int);
 8001842:	f101 0304 	add.w	r3, r1, #4
 8001846:	eb07 0784 	add.w	r7, r7, r4, lsl #2
 800184a:	6809      	ldr	r1, [r1, #0]
 800184c:	6013      	str	r3, [r2, #0]
 800184e:	f104 0301 	add.w	r3, r4, #1
 8001852:	f847 1c40 	str.w	r1, [r7, #-64]
      if (NumArguments == SEGGER_SYSVIEW_MAX_ARGUMENTS) {
 8001856:	d124      	bne.n	80018a2 <_VPrintHost.isra.0+0x7a>
      aParas[NumArguments++] = va_arg(*pParamList, int);
 8001858:	461c      	mov	r4, r3
    RECORD_START(SEGGER_SYSVIEW_INFO_SIZE + SEGGER_SYSVIEW_MAX_STRING_LEN + 2 * SEGGER_SYSVIEW_QUANTA_U32 + SEGGER_SYSVIEW_MAX_ARGUMENTS * SEGGER_SYSVIEW_QUANTA_U32);
 800185a:	f3ef 8611 	mrs	r6, BASEPRI
 800185e:	f04f 0120 	mov.w	r1, #32
 8001862:	f381 8811 	msr	BASEPRI, r1
    pPayload = _EncodeStr(pPayloadStart, s, SEGGER_SYSVIEW_MAX_STRING_LEN);
 8001866:	2280      	movs	r2, #128	@ 0x80
 8001868:	4601      	mov	r1, r0
 800186a:	481e      	ldr	r0, [pc, #120]	@ (80018e4 <_VPrintHost.isra.0+0xbc>)
 800186c:	f7ff fc94 	bl	8001198 <_EncodeStr>
    ENCODE_U32(pPayload, Options);
 8001870:	2d7f      	cmp	r5, #127	@ 0x7f
 8001872:	b2ea      	uxtb	r2, r5
 8001874:	f100 0301 	add.w	r3, r0, #1
 8001878:	d815      	bhi.n	80018a6 <_VPrintHost.isra.0+0x7e>
 800187a:	7002      	strb	r2, [r0, #0]
    ENCODE_U32(pPayload, NumArguments);
 800187c:	4620      	mov	r0, r4
 800187e:	287f      	cmp	r0, #127	@ 0x7f
 8001880:	b2c2      	uxtb	r2, r0
 8001882:	f103 0101 	add.w	r1, r3, #1
 8001886:	d815      	bhi.n	80018b4 <_VPrintHost.isra.0+0x8c>
 8001888:	466d      	mov	r5, sp
 800188a:	701a      	strb	r2, [r3, #0]
    while (NumArguments--) {
 800188c:	3c01      	subs	r4, #1
 800188e:	d218      	bcs.n	80018c2 <_VPrintHost.isra.0+0x9a>
    _SendPacket(pPayloadStart, pPayload, SYSVIEW_EVTID_PRINT_FORMATTED);
 8001890:	221a      	movs	r2, #26
 8001892:	4814      	ldr	r0, [pc, #80]	@ (80018e4 <_VPrintHost.isra.0+0xbc>)
 8001894:	f7ff fd7e 	bl	8001394 <_SendPacket>
    RECORD_END();
 8001898:	f386 8811 	msr	BASEPRI, r6
}
 800189c:	b011      	add	sp, #68	@ 0x44
 800189e:	bdf0      	pop	{r4, r5, r6, r7, pc}
 80018a0:	4623      	mov	r3, r4
 80018a2:	461c      	mov	r4, r3
 80018a4:	e7c5      	b.n	8001832 <_VPrintHost.isra.0+0xa>
    ENCODE_U32(pPayload, Options);
 80018a6:	f062 027f 	orn	r2, r2, #127	@ 0x7f
 80018aa:	09ed      	lsrs	r5, r5, #7
 80018ac:	4618      	mov	r0, r3
 80018ae:	f803 2c01 	strb.w	r2, [r3, #-1]
 80018b2:	e7dd      	b.n	8001870 <_VPrintHost.isra.0+0x48>
    ENCODE_U32(pPayload, NumArguments);
 80018b4:	f062 027f 	orn	r2, r2, #127	@ 0x7f
 80018b8:	09c0      	lsrs	r0, r0, #7
 80018ba:	460b      	mov	r3, r1
 80018bc:	f801 2c01 	strb.w	r2, [r1, #-1]
 80018c0:	e7dd      	b.n	800187e <_VPrintHost.isra.0+0x56>
      ENCODE_U32(pPayload, (*pParas));
 80018c2:	f855 2b04 	ldr.w	r2, [r5], #4
 80018c6:	2a7f      	cmp	r2, #127	@ 0x7f
 80018c8:	b2d3      	uxtb	r3, r2
 80018ca:	f101 0001 	add.w	r0, r1, #1
 80018ce:	d802      	bhi.n	80018d6 <_VPrintHost.isra.0+0xae>
 80018d0:	700b      	strb	r3, [r1, #0]
 80018d2:	4601      	mov	r1, r0
 80018d4:	e7da      	b.n	800188c <_VPrintHost.isra.0+0x64>
 80018d6:	f063 037f 	orn	r3, r3, #127	@ 0x7f
 80018da:	09d2      	lsrs	r2, r2, #7
 80018dc:	4601      	mov	r1, r0
 80018de:	f800 3c01 	strb.w	r3, [r0, #-1]
 80018e2:	e7f0      	b.n	80018c6 <_VPrintHost.isra.0+0x9e>
 80018e4:	20000978 	.word	0x20000978

080018e8 <SEGGER_SYSVIEW_PrintfHost>:
*    s        - String to be formatted.
*
*  Additional information
*    All format arguments are treated as 32-bit scalar values.
*/
void SEGGER_SYSVIEW_PrintfHost(const char* s, ...) {
 80018e8:	b40f      	push	{r0, r1, r2, r3}
 80018ea:	b507      	push	{r0, r1, r2, lr}
 80018ec:	ab04      	add	r3, sp, #16
    _VPrintTarget(s, SEGGER_SYSVIEW_LOG, &ParamList);
    va_end(ParamList);
  }
#else
  va_start(ParamList, s);
  _VPrintHost(s, SEGGER_SYSVIEW_LOG, &ParamList);
 80018ee:	aa01      	add	r2, sp, #4
 80018f0:	2100      	movs	r1, #0
void SEGGER_SYSVIEW_PrintfHost(const char* s, ...) {
 80018f2:	f853 0b04 	ldr.w	r0, [r3], #4
  va_start(ParamList, s);
 80018f6:	9301      	str	r3, [sp, #4]
  _VPrintHost(s, SEGGER_SYSVIEW_LOG, &ParamList);
 80018f8:	f7ff ff96 	bl	8001828 <_VPrintHost.isra.0>
  va_end(ParamList);
#endif
}
 80018fc:	b003      	add	sp, #12
 80018fe:	f85d eb04 	ldr.w	lr, [sp], #4
 8001902:	b004      	add	sp, #16
 8001904:	4770      	bx	lr
	...

08001908 <LCD_Unselect>:
}

static void LCD_Unselect(void)
{
    /* High means the LCD ignores SPI traffic. */
    HAL_GPIO_WritePin(LCD_CS_GPIO_Port, LCD_CS_Pin, GPIO_PIN_SET);
 8001908:	2201      	movs	r2, #1
 800190a:	f44f 4180 	mov.w	r1, #16384	@ 0x4000
 800190e:	4801      	ldr	r0, [pc, #4]	@ (8001914 <LCD_Unselect+0xc>)
 8001910:	f7fe bf14 	b.w	800073c <HAL_GPIO_WritePin>
 8001914:	40020c00 	.word	0x40020c00

08001918 <LCD_Select>:
    HAL_GPIO_WritePin(LCD_CS_GPIO_Port, LCD_CS_Pin, GPIO_PIN_RESET);
 8001918:	2200      	movs	r2, #0
 800191a:	f44f 4180 	mov.w	r1, #16384	@ 0x4000
 800191e:	4801      	ldr	r0, [pc, #4]	@ (8001924 <LCD_Select+0xc>)
 8001920:	f7fe bf0c 	b.w	800073c <HAL_GPIO_WritePin>
 8001924:	40020c00 	.word	0x40020c00

08001928 <LCD_WriteCommand>:
    HAL_GPIO_WritePin(LCD_RST_GPIO_Port, LCD_RST_Pin, GPIO_PIN_SET);
    HAL_Delay(150);
}

static void LCD_WriteCommand(uint8_t cmd)
{
 8001928:	b507      	push	{r0, r1, r2, lr}
 800192a:	f88d 0007 	strb.w	r0, [sp, #7]
     *  1) assert CS
     *  2) set D/C = command
     *  3) transmit one command byte
     *  4) deassert CS
     */
    LCD_Select();
 800192e:	f7ff fff3 	bl	8001918 <LCD_Select>
    HAL_GPIO_WritePin(LCD_DC_GPIO_Port, LCD_DC_Pin, GPIO_PIN_RESET);
 8001932:	2200      	movs	r2, #0
 8001934:	f44f 4100 	mov.w	r1, #32768	@ 0x8000
 8001938:	4809      	ldr	r0, [pc, #36]	@ (8001960 <LCD_WriteCommand+0x38>)
 800193a:	f7fe feff 	bl	800073c <HAL_GPIO_WritePin>
    LCD_DC_Command();

    if (HAL_SPI_Transmit(&hspi1, &cmd, 1, HAL_MAX_DELAY) != HAL_OK)
 800193e:	f04f 33ff 	mov.w	r3, #4294967295
 8001942:	2201      	movs	r2, #1
 8001944:	f10d 0107 	add.w	r1, sp, #7
 8001948:	4806      	ldr	r0, [pc, #24]	@ (8001964 <LCD_WriteCommand+0x3c>)
 800194a:	f7ff f94b 	bl	8000be4 <HAL_SPI_Transmit>
 800194e:	b108      	cbz	r0, 8001954 <LCD_WriteCommand+0x2c>
    {
        Error_Handler();
 8001950:	f7fe fcc4 	bl	80002dc <Error_Handler>
    }

    LCD_Unselect();
 8001954:	f7ff ffd8 	bl	8001908 <LCD_Unselect>
}
 8001958:	b003      	add	sp, #12
 800195a:	f85d fb04 	ldr.w	pc, [sp], #4
 800195e:	bf00      	nop
 8001960:	40020c00 	.word	0x40020c00
 8001964:	20000a84 	.word	0x20000a84

08001968 <LCD_WriteData>:

static void LCD_WriteData(const uint8_t *data, uint16_t size)
{
 8001968:	b538      	push	{r3, r4, r5, lr}
 800196a:	4604      	mov	r4, r0
 800196c:	460d      	mov	r5, r1
     *  1) assert CS
     *  2) set D/C = data
     *  3) transmit one or more data bytes
     *  4) deassert CS
     */
    LCD_Select();
 800196e:	f7ff ffd3 	bl	8001918 <LCD_Select>
    HAL_GPIO_WritePin(LCD_DC_GPIO_Port, LCD_DC_Pin, GPIO_PIN_SET);
 8001972:	2201      	movs	r2, #1
 8001974:	f44f 4100 	mov.w	r1, #32768	@ 0x8000
 8001978:	4808      	ldr	r0, [pc, #32]	@ (800199c <LCD_WriteData+0x34>)
 800197a:	f7fe fedf 	bl	800073c <HAL_GPIO_WritePin>
    LCD_DC_Data();

    if (HAL_SPI_Transmit(&hspi1, (uint8_t *)data, size, HAL_MAX_DELAY) != HAL_OK)
 800197e:	f04f 33ff 	mov.w	r3, #4294967295
 8001982:	462a      	mov	r2, r5
 8001984:	4621      	mov	r1, r4
 8001986:	4806      	ldr	r0, [pc, #24]	@ (80019a0 <LCD_WriteData+0x38>)
 8001988:	f7ff f92c 	bl	8000be4 <HAL_SPI_Transmit>
 800198c:	b108      	cbz	r0, 8001992 <LCD_WriteData+0x2a>
    {
        Error_Handler();
 800198e:	f7fe fca5 	bl	80002dc <Error_Handler>
    }

    LCD_Unselect();
}
 8001992:	e8bd 4038 	ldmia.w	sp!, {r3, r4, r5, lr}
    LCD_Unselect();
 8001996:	f7ff bfb7 	b.w	8001908 <LCD_Unselect>
 800199a:	bf00      	nop
 800199c:	40020c00 	.word	0x40020c00
 80019a0:	20000a84 	.word	0x20000a84

080019a4 <LCD_WriteDataByte>:

static void LCD_WriteDataByte(uint8_t data)
{
 80019a4:	b507      	push	{r0, r1, r2, lr}
    /* Convenience helper for single-byte register writes. */
    LCD_WriteData(&data, 1);
 80019a6:	2101      	movs	r1, #1
{
 80019a8:	f88d 0007 	strb.w	r0, [sp, #7]
    LCD_WriteData(&data, 1);
 80019ac:	f10d 0007 	add.w	r0, sp, #7
 80019b0:	f7ff ffda 	bl	8001968 <LCD_WriteData>
}
 80019b4:	b003      	add	sp, #12
 80019b6:	f85d fb04 	ldr.w	pc, [sp], #4
	...

080019bc <LCD_FillRect.part.0>:
{
    /* Full-screen fill is just a rectangle covering the whole display. */
    LCD_FillRect(0, 0, LCD_WIDTH, LCD_HEIGHT, color);
}

static void LCD_FillRect(uint16_t x, uint16_t y, uint16_t w, uint16_t h, uint16_t color)
 80019bc:	e92d 4ff0 	stmdb	sp!, {r4, r5, r6, r7, r8, r9, sl, fp, lr}
 80019c0:	461d      	mov	r5, r3
    }

    /*
     * Clip width/height so we never write past the edge of the display.
     */
    if ((x + w) > LCD_WIDTH)
 80019c2:	1883      	adds	r3, r0, r2
static void LCD_FillRect(uint16_t x, uint16_t y, uint16_t w, uint16_t h, uint16_t color)
 80019c4:	4614      	mov	r4, r2
    }

    /*
     * Tell the LCD which region of GRAM we are about to fill.
     */
    LCD_SetAddressWindow(x, y, x + w - 1, y + h - 1);
 80019c6:	f100 3bff 	add.w	fp, r0, #4294967295
    if ((x + w) > LCD_WIDTH)
 80019ca:	2bf0      	cmp	r3, #240	@ 0xf0
    if ((y + h) > LCD_HEIGHT)
 80019cc:	eb01 0305 	add.w	r3, r1, r5
    LCD_SetAddressWindow(x, y, x + w - 1, y + h - 1);
 80019d0:	f101 37ff 	add.w	r7, r1, #4294967295
static void LCD_FillRect(uint16_t x, uint16_t y, uint16_t w, uint16_t h, uint16_t color)
 80019d4:	b0a1      	sub	sp, #132	@ 0x84
        w = LCD_WIDTH - x;
 80019d6:	bfc8      	it	gt
 80019d8:	f1c0 04f0 	rsbgt	r4, r0, #240	@ 0xf0
static void LCD_FillRect(uint16_t x, uint16_t y, uint16_t w, uint16_t h, uint16_t color)
 80019dc:	4681      	mov	r9, r0
    data[0] = (uint8_t)(x0 >> 8);
 80019de:	f04f 0600 	mov.w	r6, #0
    LCD_WriteCommand(0x2A);
 80019e2:	f04f 002a 	mov.w	r0, #42	@ 0x2a
        w = LCD_WIDTH - x;
 80019e6:	bfc8      	it	gt
 80019e8:	b2a4      	uxthgt	r4, r4
    if ((y + h) > LCD_HEIGHT)
 80019ea:	f5b3 7fa0 	cmp.w	r3, #320	@ 0x140
static void LCD_FillRect(uint16_t x, uint16_t y, uint16_t w, uint16_t h, uint16_t color)
 80019ee:	4688      	mov	r8, r1
 80019f0:	f8bd a0a8 	ldrh.w	sl, [sp, #168]	@ 0xa8
        h = LCD_HEIGHT - y;
 80019f4:	bfc8      	it	gt
 80019f6:	f5c1 75a0 	rsbgt	r5, r1, #320	@ 0x140
    LCD_SetAddressWindow(x, y, x + w - 1, y + h - 1);
 80019fa:	44a3      	add	fp, r4
        h = LCD_HEIGHT - y;
 80019fc:	bfc8      	it	gt
 80019fe:	b2ad      	uxthgt	r5, r5
    LCD_SetAddressWindow(x, y, x + w - 1, y + h - 1);
 8001a00:	fa1f fb8b 	uxth.w	fp, fp
 8001a04:	442f      	add	r7, r5
    LCD_WriteCommand(0x2A);
 8001a06:	f7ff ff8f 	bl	8001928 <LCD_WriteCommand>
    data[2] = (uint8_t)(x1 >> 8);
 8001a0a:	fa9b fb9b 	rev16.w	fp, fp
    LCD_WriteData(data, 4);
 8001a0e:	2104      	movs	r1, #4
    LCD_SetAddressWindow(x, y, x + w - 1, y + h - 1);
 8001a10:	b2bf      	uxth	r7, r7
    LCD_WriteData(data, 4);
 8001a12:	4668      	mov	r0, sp
    data[0] = (uint8_t)(x0 >> 8);
 8001a14:	f88d 6000 	strb.w	r6, [sp]
    data[2] = (uint8_t)(y1 >> 8);
 8001a18:	ba7f      	rev16	r7, r7
    data[1] = (uint8_t)(x0 & 0xFF);
 8001a1a:	f88d 9001 	strb.w	r9, [sp, #1]
    data[2] = (uint8_t)(x1 >> 8);
 8001a1e:	f8ad b002 	strh.w	fp, [sp, #2]
    LCD_WriteData(data, 4);
 8001a22:	f7ff ffa1 	bl	8001968 <LCD_WriteData>
    LCD_WriteCommand(0x2B);
 8001a26:	202b      	movs	r0, #43	@ 0x2b
 8001a28:	f7ff ff7e 	bl	8001928 <LCD_WriteCommand>
    LCD_WriteData(data, 4);
 8001a2c:	2104      	movs	r1, #4
 8001a2e:	4668      	mov	r0, sp
    data[0] = (uint8_t)(y0 >> 8);
 8001a30:	f88d 6000 	strb.w	r6, [sp]
    data[1] = (uint8_t)(y0 & 0xFF);
 8001a34:	f88d 8001 	strb.w	r8, [sp, #1]
    data[2] = (uint8_t)(y1 >> 8);
 8001a38:	f8ad 7002 	strh.w	r7, [sp, #2]
    LCD_WriteData(data, 4);
 8001a3c:	f7ff ff94 	bl	8001968 <LCD_WriteData>
    LCD_WriteCommand(0x2C);
 8001a40:	202c      	movs	r0, #44	@ 0x2c
 8001a42:	f7ff ff71 	bl	8001928 <LCD_WriteCommand>

    /*
     * RGB565 is sent high byte first, then low byte.
     */
    hi = (uint8_t)(color >> 8);
 8001a46:	466b      	mov	r3, sp
 8001a48:	ea4f 221a 	mov.w	r2, sl, lsr #8
    lo = (uint8_t)(color & 0xFF);
 8001a4c:	fa5f fa8a 	uxtb.w	sl, sl

    /*
     * Build a small reusable transmission block containing repeated copies
     * of the same color. This avoids transmitting one pixel at a time.
     */
    for (i = 0; i < sizeof(block); i += 2)
 8001a50:	3601      	adds	r6, #1
    {
        block[i] = hi;
 8001a52:	701a      	strb	r2, [r3, #0]
        block[i + 1] = lo;
 8001a54:	f883 a001 	strb.w	sl, [r3, #1]
    for (i = 0; i < sizeof(block); i += 2)
 8001a58:	3302      	adds	r3, #2
 8001a5a:	2e40      	cmp	r6, #64	@ 0x40
 8001a5c:	d1f8      	bne.n	8001a50 <LCD_FillRect.part.0+0x94>
    }

    pixels = (uint32_t)w * (uint32_t)h;
 8001a5e:	436c      	muls	r4, r5
         * block[128] holds 64 RGB565 pixels because each pixel is 2 bytes.
         */
        uint16_t chunk_pixels = (pixels > (sizeof(block) / 2U)) ? (sizeof(block) / 2U) : (uint16_t)pixels;
        uint16_t chunk_bytes = (uint16_t)(chunk_pixels * 2U);

        if (HAL_SPI_Transmit(&hspi1, block, chunk_bytes, HAL_MAX_DELAY) != HAL_OK)
 8001a60:	4e0f      	ldr	r6, [pc, #60]	@ (8001aa0 <LCD_FillRect.part.0+0xe4>)
    LCD_Select();
 8001a62:	f7ff ff59 	bl	8001918 <LCD_Select>
    HAL_GPIO_WritePin(LCD_DC_GPIO_Port, LCD_DC_Pin, GPIO_PIN_SET);
 8001a66:	2201      	movs	r2, #1
 8001a68:	f44f 4100 	mov.w	r1, #32768	@ 0x8000
 8001a6c:	480d      	ldr	r0, [pc, #52]	@ (8001aa4 <LCD_FillRect.part.0+0xe8>)
 8001a6e:	f7fe fe65 	bl	800073c <HAL_GPIO_WritePin>
        uint16_t chunk_pixels = (pixels > (sizeof(block) / 2U)) ? (sizeof(block) / 2U) : (uint16_t)pixels;
 8001a72:	2c40      	cmp	r4, #64	@ 0x40
 8001a74:	4625      	mov	r5, r4
        if (HAL_SPI_Transmit(&hspi1, block, chunk_bytes, HAL_MAX_DELAY) != HAL_OK)
 8001a76:	f04f 33ff 	mov.w	r3, #4294967295
 8001a7a:	4669      	mov	r1, sp
        uint16_t chunk_pixels = (pixels > (sizeof(block) / 2U)) ? (sizeof(block) / 2U) : (uint16_t)pixels;
 8001a7c:	bf28      	it	cs
 8001a7e:	2540      	movcs	r5, #64	@ 0x40
        if (HAL_SPI_Transmit(&hspi1, block, chunk_bytes, HAL_MAX_DELAY) != HAL_OK)
 8001a80:	4630      	mov	r0, r6
        uint16_t chunk_bytes = (uint16_t)(chunk_pixels * 2U);
 8001a82:	006a      	lsls	r2, r5, #1
        if (HAL_SPI_Transmit(&hspi1, block, chunk_bytes, HAL_MAX_DELAY) != HAL_OK)
 8001a84:	b292      	uxth	r2, r2
 8001a86:	f7ff f8ad 	bl	8000be4 <HAL_SPI_Transmit>
 8001a8a:	b108      	cbz	r0, 8001a90 <LCD_FillRect.part.0+0xd4>
        {
            Error_Handler();
 8001a8c:	f7fe fc26 	bl	80002dc <Error_Handler>
    while (pixels > 0U)
 8001a90:	1b64      	subs	r4, r4, r5
 8001a92:	d1ee      	bne.n	8001a72 <LCD_FillRect.part.0+0xb6>
        }

        pixels -= chunk_pixels;
    }

    LCD_Unselect();
 8001a94:	f7ff ff38 	bl	8001908 <LCD_Unselect>
}
 8001a98:	b021      	add	sp, #132	@ 0x84
 8001a9a:	e8bd 8ff0 	ldmia.w	sp!, {r4, r5, r6, r7, r8, r9, sl, fp, pc}
 8001a9e:	bf00      	nop
 8001aa0:	20000a84 	.word	0x20000a84
 8001aa4:	40020c00 	.word	0x40020c00

08001aa8 <main>:
{
 8001aa8:	e92d 41f0 	stmdb	sp!, {r4, r5, r6, r7, r8, lr}
 8001aac:	b08a      	sub	sp, #40	@ 0x28
    GPIO_InitTypeDef GPIO_InitStruct = {0};
 8001aae:	2400      	movs	r4, #0
    HAL_Init();
 8001ab0:	f7fe fc44 	bl	800033c <HAL_Init>
    __HAL_RCC_GPIOD_CLK_ENABLE();
 8001ab4:	4ba7      	ldr	r3, [pc, #668]	@ (8001d54 <main+0x2ac>)
    GPIO_InitTypeDef GPIO_InitStruct = {0};
 8001ab6:	9409      	str	r4, [sp, #36]	@ 0x24
    GPIO_InitStruct.Mode = GPIO_MODE_OUTPUT_PP;
 8001ab8:	2501      	movs	r5, #1
    GPIO_InitStruct.Pin = LCD_CS_Pin | LCD_DC_Pin;
 8001aba:	f44f 4740 	mov.w	r7, #49152	@ 0xc000
    HAL_GPIO_Init(GPIOD, &GPIO_InitStruct);
 8001abe:	a905      	add	r1, sp, #20
 8001ac0:	48a5      	ldr	r0, [pc, #660]	@ (8001d58 <main+0x2b0>)
    GPIO_InitStruct.Pin = LCD_RST_Pin;
 8001ac2:	f44f 5680 	mov.w	r6, #4096	@ 0x1000
    GPIO_InitTypeDef GPIO_InitStruct = {0};
 8001ac6:	e9cd 4407 	strd	r4, r4, [sp, #28]
    __HAL_RCC_GPIOD_CLK_ENABLE();
 8001aca:	6b1a      	ldr	r2, [r3, #48]	@ 0x30
 8001acc:	f042 0208 	orr.w	r2, r2, #8
 8001ad0:	631a      	str	r2, [r3, #48]	@ 0x30
 8001ad2:	6b1a      	ldr	r2, [r3, #48]	@ 0x30
 8001ad4:	f002 0208 	and.w	r2, r2, #8
 8001ad8:	9203      	str	r2, [sp, #12]
 8001ada:	9a03      	ldr	r2, [sp, #12]
    __HAL_RCC_GPIOF_CLK_ENABLE();
 8001adc:	6b1a      	ldr	r2, [r3, #48]	@ 0x30
 8001ade:	f042 0220 	orr.w	r2, r2, #32
 8001ae2:	631a      	str	r2, [r3, #48]	@ 0x30
 8001ae4:	6b1b      	ldr	r3, [r3, #48]	@ 0x30
    GPIO_InitStruct.Mode = GPIO_MODE_OUTPUT_PP;
 8001ae6:	9506      	str	r5, [sp, #24]
    __HAL_RCC_GPIOF_CLK_ENABLE();
 8001ae8:	f003 0320 	and.w	r3, r3, #32
    GPIO_InitStruct.Pin = LCD_CS_Pin | LCD_DC_Pin;
 8001aec:	9705      	str	r7, [sp, #20]
    __HAL_RCC_GPIOF_CLK_ENABLE();
 8001aee:	9304      	str	r3, [sp, #16]
 8001af0:	9b04      	ldr	r3, [sp, #16]
    GPIO_InitStruct.Speed = GPIO_SPEED_FREQ_VERY_HIGH;
 8001af2:	2303      	movs	r3, #3
 8001af4:	9308      	str	r3, [sp, #32]
    HAL_GPIO_Init(GPIOD, &GPIO_InitStruct);
 8001af6:	f7fe fcc7 	bl	8000488 <HAL_GPIO_Init>
    HAL_GPIO_Init(GPIOF, &GPIO_InitStruct);
 8001afa:	a905      	add	r1, sp, #20
 8001afc:	4897      	ldr	r0, [pc, #604]	@ (8001d5c <main+0x2b4>)
    GPIO_InitStruct.Pin = LCD_RST_Pin;
 8001afe:	9605      	str	r6, [sp, #20]
    HAL_GPIO_Init(GPIOF, &GPIO_InitStruct);
 8001b00:	f7fe fcc2 	bl	8000488 <HAL_GPIO_Init>
    HAL_GPIO_WritePin(GPIOD, LCD_CS_Pin | LCD_DC_Pin, GPIO_PIN_SET);
 8001b04:	462a      	mov	r2, r5
 8001b06:	4639      	mov	r1, r7
 8001b08:	4893      	ldr	r0, [pc, #588]	@ (8001d58 <main+0x2b0>)
 8001b0a:	f7fe fe17 	bl	800073c <HAL_GPIO_WritePin>
    HAL_GPIO_WritePin(GPIOF, LCD_RST_Pin, GPIO_PIN_SET);
 8001b0e:	462a      	mov	r2, r5
 8001b10:	4631      	mov	r1, r6
 8001b12:	4892      	ldr	r0, [pc, #584]	@ (8001d5c <main+0x2b4>)
 8001b14:	f7fe fe12 	bl	800073c <HAL_GPIO_WritePin>
    hspi1.Instance = SPI1;
 8001b18:	4891      	ldr	r0, [pc, #580]	@ (8001d60 <main+0x2b8>)
    hspi1.Init.Mode = SPI_MODE_MASTER;
 8001b1a:	f44f 7382 	mov.w	r3, #260	@ 0x104
 8001b1e:	4a91      	ldr	r2, [pc, #580]	@ (8001d64 <main+0x2bc>)
    hspi1.Init.DataSize = SPI_DATASIZE_8BIT;
 8001b20:	f44f 4100 	mov.w	r1, #32768	@ 0x8000
    hspi1.Init.CRCCalculation = SPI_CRCCALCULATION_DISABLE;
 8001b24:	6284      	str	r4, [r0, #40]	@ 0x28
    hspi1.Init.Mode = SPI_MODE_MASTER;
 8001b26:	e9c0 2300 	strd	r2, r3, [r0]
    hspi1.Init.DataSize = SPI_DATASIZE_8BIT;
 8001b2a:	f44f 63e0 	mov.w	r3, #1792	@ 0x700
 8001b2e:	e9c0 1302 	strd	r1, r3, [r0, #8]
    hspi1.Init.NSS = SPI_NSS_SOFT;
 8001b32:	f44f 7300 	mov.w	r3, #512	@ 0x200
    hspi1.Init.BaudRatePrescaler = SPI_BAUDRATEPRESCALER_2;
 8001b36:	e9c0 3406 	strd	r3, r4, [r0, #24]
    hspi1.Init.CRCPolynomial = 7;
 8001b3a:	2307      	movs	r3, #7
    hspi1.Init.CLKPhase = SPI_PHASE_1EDGE;
 8001b3c:	e9c0 4404 	strd	r4, r4, [r0, #16]
    hspi1.Init.TIMode = SPI_TIMODE_DISABLE;
 8001b40:	e9c0 4408 	strd	r4, r4, [r0, #32]
    hspi1.Init.CRCPolynomial = 7;
 8001b44:	62c3      	str	r3, [r0, #44]	@ 0x2c
    if (HAL_SPI_Init(&hspi1) != HAL_OK)
 8001b46:	f7fe ff05 	bl	8000954 <HAL_SPI_Init>
 8001b4a:	b108      	cbz	r0, 8001b50 <main+0xa8>
        Error_Handler();
 8001b4c:	f7fe fbc6 	bl	80002dc <Error_Handler>
    LCD_Unselect();
 8001b50:	f7ff feda 	bl	8001908 <LCD_Unselect>
    HAL_Delay(50);
 8001b54:	2032      	movs	r0, #50	@ 0x32
 8001b56:	f7fe fc0f 	bl	8000378 <HAL_Delay>
    HAL_GPIO_WritePin(LCD_RST_GPIO_Port, LCD_RST_Pin, GPIO_PIN_SET);
 8001b5a:	2201      	movs	r2, #1
 8001b5c:	f44f 5180 	mov.w	r1, #4096	@ 0x1000
 8001b60:	487e      	ldr	r0, [pc, #504]	@ (8001d5c <main+0x2b4>)
 8001b62:	f7fe fdeb 	bl	800073c <HAL_GPIO_WritePin>
    HAL_Delay(5);
 8001b66:	2005      	movs	r0, #5
 8001b68:	f7fe fc06 	bl	8000378 <HAL_Delay>
    HAL_GPIO_WritePin(LCD_RST_GPIO_Port, LCD_RST_Pin, GPIO_PIN_RESET);
 8001b6c:	2200      	movs	r2, #0
 8001b6e:	f44f 5180 	mov.w	r1, #4096	@ 0x1000
 8001b72:	487a      	ldr	r0, [pc, #488]	@ (8001d5c <main+0x2b4>)
 8001b74:	f7fe fde2 	bl	800073c <HAL_GPIO_WritePin>
    HAL_Delay(20);
 8001b78:	2014      	movs	r0, #20
 8001b7a:	f7fe fbfd 	bl	8000378 <HAL_Delay>
    HAL_GPIO_WritePin(LCD_RST_GPIO_Port, LCD_RST_Pin, GPIO_PIN_SET);
 8001b7e:	2201      	movs	r2, #1
 8001b80:	f44f 5180 	mov.w	r1, #4096	@ 0x1000
 8001b84:	4875      	ldr	r0, [pc, #468]	@ (8001d5c <main+0x2b4>)
 8001b86:	f7fe fdd9 	bl	800073c <HAL_GPIO_WritePin>
    HAL_Delay(150);
 8001b8a:	2096      	movs	r0, #150	@ 0x96
    { uint8_t d[] = {0x39, 0x2C, 0x00, 0x34, 0x02};
 8001b8c:	4c76      	ldr	r4, [pc, #472]	@ (8001d68 <main+0x2c0>)
    HAL_Delay(150);
 8001b8e:	f7fe fbf3 	bl	8000378 <HAL_Delay>
    LCD_WriteCommand(0x01);
 8001b92:	2001      	movs	r0, #1
 8001b94:	f7ff fec8 	bl	8001928 <LCD_WriteCommand>
    HAL_Delay(120);
 8001b98:	2078      	movs	r0, #120	@ 0x78
 8001b9a:	f7fe fbed 	bl	8000378 <HAL_Delay>
    { uint8_t d[] = {0x39, 0x2C, 0x00, 0x34, 0x02};
 8001b9e:	6820      	ldr	r0, [r4, #0]
 8001ba0:	7923      	ldrb	r3, [r4, #4]
 8001ba2:	9005      	str	r0, [sp, #20]
      LCD_WriteCommand(0xCB);
 8001ba4:	20cb      	movs	r0, #203	@ 0xcb
    { uint8_t d[] = {0x39, 0x2C, 0x00, 0x34, 0x02};
 8001ba6:	f88d 3018 	strb.w	r3, [sp, #24]
      LCD_WriteCommand(0xCB);
 8001baa:	f7ff febd 	bl	8001928 <LCD_WriteCommand>
      LCD_WriteData(d, sizeof(d));
 8001bae:	2105      	movs	r1, #5
 8001bb0:	a805      	add	r0, sp, #20
 8001bb2:	f7ff fed9 	bl	8001968 <LCD_WriteData>
    { uint8_t d[] = {0x00, 0xC1, 0x30};
 8001bb6:	f8b4 2005 	ldrh.w	r2, [r4, #5]
 8001bba:	79e3      	ldrb	r3, [r4, #7]
      LCD_WriteCommand(0xCF);
 8001bbc:	20cf      	movs	r0, #207	@ 0xcf
    { uint8_t d[] = {0x00, 0xC1, 0x30};
 8001bbe:	f8ad 2014 	strh.w	r2, [sp, #20]
 8001bc2:	f88d 3016 	strb.w	r3, [sp, #22]
      LCD_WriteCommand(0xCF);
 8001bc6:	f7ff feaf 	bl	8001928 <LCD_WriteCommand>
      LCD_WriteData(d, sizeof(d));
 8001bca:	2103      	movs	r1, #3
 8001bcc:	a805      	add	r0, sp, #20
 8001bce:	f7ff fecb 	bl	8001968 <LCD_WriteData>
    { uint8_t d[] = {0x85, 0x00, 0x78};
 8001bd2:	8922      	ldrh	r2, [r4, #8]
 8001bd4:	7aa3      	ldrb	r3, [r4, #10]
      LCD_WriteCommand(0xE8);
 8001bd6:	20e8      	movs	r0, #232	@ 0xe8
    { uint8_t d[] = {0x85, 0x00, 0x78};
 8001bd8:	f8ad 2014 	strh.w	r2, [sp, #20]
    { uint8_t d[] = {0x00, 0x00};
 8001bdc:	2400      	movs	r4, #0
    { uint8_t d[] = {0x85, 0x00, 0x78};
 8001bde:	f88d 3016 	strb.w	r3, [sp, #22]
      LCD_WriteCommand(0xE8);
 8001be2:	f7ff fea1 	bl	8001928 <LCD_WriteCommand>
      LCD_WriteData(d, sizeof(d));
 8001be6:	2103      	movs	r1, #3
 8001be8:	a805      	add	r0, sp, #20
 8001bea:	f7ff febd 	bl	8001968 <LCD_WriteData>
      LCD_WriteCommand(0xEA);
 8001bee:	20ea      	movs	r0, #234	@ 0xea
    { uint8_t d[] = {0x00, 0x00};
 8001bf0:	f8ad 4014 	strh.w	r4, [sp, #20]
      LCD_WriteCommand(0xEA);
 8001bf4:	f7ff fe98 	bl	8001928 <LCD_WriteCommand>
      LCD_WriteData(d, sizeof(d));
 8001bf8:	2102      	movs	r1, #2
 8001bfa:	a805      	add	r0, sp, #20
 8001bfc:	f7ff feb4 	bl	8001968 <LCD_WriteData>
    { uint8_t d[] = {0x64, 0x03, 0x12, 0x81};
 8001c00:	4b5a      	ldr	r3, [pc, #360]	@ (8001d6c <main+0x2c4>)
      LCD_WriteCommand(0xED);
 8001c02:	20ed      	movs	r0, #237	@ 0xed
    { uint8_t d[] = {0x64, 0x03, 0x12, 0x81};
 8001c04:	9305      	str	r3, [sp, #20]
      LCD_WriteCommand(0xED);
 8001c06:	f7ff fe8f 	bl	8001928 <LCD_WriteCommand>
      LCD_WriteData(d, sizeof(d));
 8001c0a:	2104      	movs	r1, #4
 8001c0c:	a805      	add	r0, sp, #20
 8001c0e:	f7ff feab 	bl	8001968 <LCD_WriteData>
    LCD_WriteCommand(0xF7);
 8001c12:	20f7      	movs	r0, #247	@ 0xf7
 8001c14:	f7ff fe88 	bl	8001928 <LCD_WriteCommand>
    LCD_WriteDataByte(0x20);
 8001c18:	2020      	movs	r0, #32
 8001c1a:	f7ff fec3 	bl	80019a4 <LCD_WriteDataByte>
    LCD_WriteCommand(0xC0);
 8001c1e:	20c0      	movs	r0, #192	@ 0xc0
 8001c20:	f7ff fe82 	bl	8001928 <LCD_WriteCommand>
    LCD_WriteDataByte(0x23);
 8001c24:	2023      	movs	r0, #35	@ 0x23
 8001c26:	f7ff febd 	bl	80019a4 <LCD_WriteDataByte>
    LCD_WriteCommand(0xC1);
 8001c2a:	20c1      	movs	r0, #193	@ 0xc1
 8001c2c:	f7ff fe7c 	bl	8001928 <LCD_WriteCommand>
    LCD_WriteDataByte(0x10);
 8001c30:	2010      	movs	r0, #16
 8001c32:	f7ff feb7 	bl	80019a4 <LCD_WriteDataByte>
    { uint8_t d[] = {0x3E, 0x28};
 8001c36:	f642 033e 	movw	r3, #10302	@ 0x283e
      LCD_WriteCommand(0xC5);
 8001c3a:	20c5      	movs	r0, #197	@ 0xc5
    { uint8_t d[] = {0x3E, 0x28};
 8001c3c:	f8ad 3014 	strh.w	r3, [sp, #20]
      LCD_WriteCommand(0xC5);
 8001c40:	f7ff fe72 	bl	8001928 <LCD_WriteCommand>
      LCD_WriteData(d, sizeof(d));
 8001c44:	2102      	movs	r1, #2
 8001c46:	a805      	add	r0, sp, #20
 8001c48:	f7ff fe8e 	bl	8001968 <LCD_WriteData>
    LCD_WriteCommand(0xC7);
 8001c4c:	20c7      	movs	r0, #199	@ 0xc7
 8001c4e:	f7ff fe6b 	bl	8001928 <LCD_WriteCommand>
    LCD_WriteDataByte(0x86);
 8001c52:	2086      	movs	r0, #134	@ 0x86
 8001c54:	f7ff fea6 	bl	80019a4 <LCD_WriteDataByte>
    LCD_WriteCommand(0x36);
 8001c58:	2036      	movs	r0, #54	@ 0x36
 8001c5a:	f7ff fe65 	bl	8001928 <LCD_WriteCommand>
    LCD_WriteDataByte(0x48);
 8001c5e:	2048      	movs	r0, #72	@ 0x48
 8001c60:	f7ff fea0 	bl	80019a4 <LCD_WriteDataByte>
    LCD_WriteCommand(0x3A);
 8001c64:	203a      	movs	r0, #58	@ 0x3a
 8001c66:	f7ff fe5f 	bl	8001928 <LCD_WriteCommand>
    LCD_WriteDataByte(0x55);
 8001c6a:	2055      	movs	r0, #85	@ 0x55
 8001c6c:	f7ff fe9a 	bl	80019a4 <LCD_WriteDataByte>
    { uint8_t d[] = {0x00, 0x18};
 8001c70:	f44f 53c0 	mov.w	r3, #6144	@ 0x1800
      LCD_WriteCommand(0xB1);
 8001c74:	20b1      	movs	r0, #177	@ 0xb1
    { uint8_t d[] = {0x00, 0x18};
 8001c76:	f8ad 3014 	strh.w	r3, [sp, #20]
      LCD_WriteCommand(0xB1);
 8001c7a:	f7ff fe55 	bl	8001928 <LCD_WriteCommand>
      LCD_WriteData(d, sizeof(d));
 8001c7e:	2102      	movs	r1, #2
 8001c80:	a805      	add	r0, sp, #20
 8001c82:	f7ff fe71 	bl	8001968 <LCD_WriteData>
    { uint8_t d[] = {0x08, 0x82, 0x27};
 8001c86:	4b3a      	ldr	r3, [pc, #232]	@ (8001d70 <main+0x2c8>)
      LCD_WriteCommand(0xB6);
 8001c88:	20b6      	movs	r0, #182	@ 0xb6
    { uint8_t d[] = {0x08, 0x82, 0x27};
 8001c8a:	881a      	ldrh	r2, [r3, #0]
 8001c8c:	789b      	ldrb	r3, [r3, #2]
 8001c8e:	f8ad 2014 	strh.w	r2, [sp, #20]
 8001c92:	f88d 3016 	strb.w	r3, [sp, #22]
      LCD_WriteCommand(0xB6);
 8001c96:	f7ff fe47 	bl	8001928 <LCD_WriteCommand>
      LCD_WriteData(d, sizeof(d));
 8001c9a:	2103      	movs	r1, #3
 8001c9c:	a805      	add	r0, sp, #20
 8001c9e:	f7ff fe63 	bl	8001968 <LCD_WriteData>
    LCD_WriteCommand(0xF2);
 8001ca2:	20f2      	movs	r0, #242	@ 0xf2
 8001ca4:	f7ff fe40 	bl	8001928 <LCD_WriteCommand>
    LCD_WriteDataByte(0x00);
 8001ca8:	4620      	mov	r0, r4
 8001caa:	f7ff fe7b 	bl	80019a4 <LCD_WriteDataByte>
    LCD_WriteCommand(0x26);
 8001cae:	2026      	movs	r0, #38	@ 0x26
 8001cb0:	f7ff fe3a 	bl	8001928 <LCD_WriteCommand>
    LCD_WriteDataByte(0x01);
 8001cb4:	2001      	movs	r0, #1
 8001cb6:	f7ff fe75 	bl	80019a4 <LCD_WriteDataByte>
        uint8_t d[] = {
 8001cba:	4b2e      	ldr	r3, [pc, #184]	@ (8001d74 <main+0x2cc>)
 8001cbc:	aa05      	add	r2, sp, #20
 8001cbe:	f103 0508 	add.w	r5, r3, #8
 8001cc2:	6818      	ldr	r0, [r3, #0]
 8001cc4:	3308      	adds	r3, #8
 8001cc6:	f853 1c04 	ldr.w	r1, [r3, #-4]
 8001cca:	4614      	mov	r4, r2
 8001ccc:	42ab      	cmp	r3, r5
 8001cce:	c403      	stmia	r4!, {r0, r1}
 8001cd0:	4622      	mov	r2, r4
 8001cd2:	d1f6      	bne.n	8001cc2 <main+0x21a>
 8001cd4:	6818      	ldr	r0, [r3, #0]
 8001cd6:	8899      	ldrh	r1, [r3, #4]
 8001cd8:	799b      	ldrb	r3, [r3, #6]
 8001cda:	6020      	str	r0, [r4, #0]
        LCD_WriteCommand(0xE0);
 8001cdc:	20e0      	movs	r0, #224	@ 0xe0
        uint8_t d[] = {
 8001cde:	71a3      	strb	r3, [r4, #6]
 8001ce0:	80a1      	strh	r1, [r4, #4]
        LCD_WriteCommand(0xE0);
 8001ce2:	f7ff fe21 	bl	8001928 <LCD_WriteCommand>
        LCD_WriteData(d, sizeof(d));
 8001ce6:	210f      	movs	r1, #15
 8001ce8:	a805      	add	r0, sp, #20
 8001cea:	f7ff fe3d 	bl	8001968 <LCD_WriteData>
        uint8_t d[] = {
 8001cee:	4b22      	ldr	r3, [pc, #136]	@ (8001d78 <main+0x2d0>)
 8001cf0:	aa05      	add	r2, sp, #20
 8001cf2:	f103 0508 	add.w	r5, r3, #8
 8001cf6:	6818      	ldr	r0, [r3, #0]
 8001cf8:	3308      	adds	r3, #8
 8001cfa:	f853 1c04 	ldr.w	r1, [r3, #-4]
 8001cfe:	4614      	mov	r4, r2
 8001d00:	42ab      	cmp	r3, r5
 8001d02:	c403      	stmia	r4!, {r0, r1}
 8001d04:	4622      	mov	r2, r4
 8001d06:	d1f6      	bne.n	8001cf6 <main+0x24e>
 8001d08:	6818      	ldr	r0, [r3, #0]
 8001d0a:	8899      	ldrh	r1, [r3, #4]
 8001d0c:	799b      	ldrb	r3, [r3, #6]
 8001d0e:	6020      	str	r0, [r4, #0]
        LCD_WriteCommand(0xE1);
 8001d10:	20e1      	movs	r0, #225	@ 0xe1
        uint8_t d[] = {
 8001d12:	71a3      	strb	r3, [r4, #6]
 8001d14:	80a1      	strh	r1, [r4, #4]
 8001d16:	2405      	movs	r4, #5
        LCD_WriteCommand(0xE1);
 8001d18:	f7ff fe06 	bl	8001928 <LCD_WriteCommand>
        LCD_WriteData(d, sizeof(d));
 8001d1c:	210f      	movs	r1, #15
 8001d1e:	a805      	add	r0, sp, #20
 8001d20:	f7ff fe22 	bl	8001968 <LCD_WriteData>
    LCD_WriteCommand(0x11);
 8001d24:	2011      	movs	r0, #17
 8001d26:	f7ff fdff 	bl	8001928 <LCD_WriteCommand>
    HAL_Delay(120);
 8001d2a:	2078      	movs	r0, #120	@ 0x78
 8001d2c:	f7fe fb24 	bl	8000378 <HAL_Delay>
    LCD_WriteCommand(0x29);
 8001d30:	2029      	movs	r0, #41	@ 0x29
 8001d32:	f7ff fdf9 	bl	8001928 <LCD_WriteCommand>
    HAL_Delay(20);
 8001d36:	2014      	movs	r0, #20
 8001d38:	f7fe fb1e 	bl	8000378 <HAL_Delay>
    HAL_Delay(50);
 8001d3c:	2032      	movs	r0, #50	@ 0x32
 8001d3e:	f7fe fb1b 	bl	8000378 <HAL_Delay>
    if ((x >= LCD_WIDTH) || (y >= LCD_HEIGHT))
 8001d42:	2100      	movs	r1, #0
 8001d44:	f44f 73a0 	mov.w	r3, #320	@ 0x140
 8001d48:	22f0      	movs	r2, #240	@ 0xf0
 8001d4a:	4608      	mov	r0, r1
 8001d4c:	9100      	str	r1, [sp, #0]
 8001d4e:	f7ff fe35 	bl	80019bc <LCD_FillRect.part.0>
 8001d52:	e013      	b.n	8001d7c <main+0x2d4>
 8001d54:	40023800 	.word	0x40023800
 8001d58:	40020c00 	.word	0x40020c00
 8001d5c:	40021400 	.word	0x40021400
 8001d60:	20000a84 	.word	0x20000a84
 8001d64:	40013000 	.word	0x40013000
 8001d68:	08002044 	.word	0x08002044
 8001d6c:	81120364 	.word	0x81120364
 8001d70:	0800218f 	.word	0x0800218f
 8001d74:	08002193 	.word	0x08002193
 8001d78:	0800204f 	.word	0x0800204f
 8001d7c:	f44f 4678 	mov.w	r6, #63488	@ 0xf800
 8001d80:	210a      	movs	r1, #10
 8001d82:	f44f 65fc 	mov.w	r5, #2016	@ 0x7e0
 8001d86:	f04f 081f 	mov.w	r8, #31
 8001d8a:	4608      	mov	r0, r1
 8001d8c:	233c      	movs	r3, #60	@ 0x3c
 8001d8e:	2264      	movs	r2, #100	@ 0x64
 8001d90:	9600      	str	r6, [sp, #0]
 8001d92:	f7ff fe13 	bl	80019bc <LCD_FillRect.part.0>
 8001d96:	f64f 77e0 	movw	r7, #65504	@ 0xffe0
 8001d9a:	233c      	movs	r3, #60	@ 0x3c
 8001d9c:	2264      	movs	r2, #100	@ 0x64
 8001d9e:	210a      	movs	r1, #10
 8001da0:	2082      	movs	r0, #130	@ 0x82
 8001da2:	9500      	str	r5, [sp, #0]
 8001da4:	f7ff fe0a 	bl	80019bc <LCD_FillRect.part.0>
 8001da8:	2350      	movs	r3, #80	@ 0x50
 8001daa:	22dc      	movs	r2, #220	@ 0xdc
 8001dac:	215a      	movs	r1, #90	@ 0x5a
 8001dae:	200a      	movs	r0, #10
 8001db0:	f8cd 8000 	str.w	r8, [sp]
 8001db4:	f7ff fe02 	bl	80019bc <LCD_FillRect.part.0>
 8001db8:	2350      	movs	r3, #80	@ 0x50
 8001dba:	22a0      	movs	r2, #160	@ 0xa0
 8001dbc:	21c8      	movs	r1, #200	@ 0xc8
 8001dbe:	2028      	movs	r0, #40	@ 0x28
 8001dc0:	9700      	str	r7, [sp, #0]
 8001dc2:	f7ff fdfb 	bl	80019bc <LCD_FillRect.part.0>
 8001dc6:	210a      	movs	r1, #10
 8001dc8:	233c      	movs	r3, #60	@ 0x3c
 8001dca:	2264      	movs	r2, #100	@ 0x64
 8001dcc:	4608      	mov	r0, r1
 8001dce:	9500      	str	r5, [sp, #0]
 8001dd0:	f7ff fdf4 	bl	80019bc <LCD_FillRect.part.0>
 8001dd4:	233c      	movs	r3, #60	@ 0x3c
 8001dd6:	2264      	movs	r2, #100	@ 0x64
 8001dd8:	210a      	movs	r1, #10
 8001dda:	2082      	movs	r0, #130	@ 0x82
 8001ddc:	f8cd 8000 	str.w	r8, [sp]
 8001de0:	f7ff fdec 	bl	80019bc <LCD_FillRect.part.0>
 8001de4:	2350      	movs	r3, #80	@ 0x50
 8001de6:	22dc      	movs	r2, #220	@ 0xdc
 8001de8:	215a      	movs	r1, #90	@ 0x5a
 8001dea:	200a      	movs	r0, #10
 8001dec:	9700      	str	r7, [sp, #0]
 8001dee:	f7ff fde5 	bl	80019bc <LCD_FillRect.part.0>
 8001df2:	2350      	movs	r3, #80	@ 0x50
 8001df4:	22a0      	movs	r2, #160	@ 0xa0
 8001df6:	21c8      	movs	r1, #200	@ 0xc8
 8001df8:	2028      	movs	r0, #40	@ 0x28
 8001dfa:	9600      	str	r6, [sp, #0]
 8001dfc:	f7ff fdde 	bl	80019bc <LCD_FillRect.part.0>
 8001e00:	210a      	movs	r1, #10
 8001e02:	233c      	movs	r3, #60	@ 0x3c
 8001e04:	2264      	movs	r2, #100	@ 0x64
 8001e06:	4608      	mov	r0, r1
 8001e08:	f8cd 8000 	str.w	r8, [sp]
 8001e0c:	f7ff fdd6 	bl	80019bc <LCD_FillRect.part.0>
 8001e10:	233c      	movs	r3, #60	@ 0x3c
 8001e12:	2264      	movs	r2, #100	@ 0x64
 8001e14:	210a      	movs	r1, #10
 8001e16:	2082      	movs	r0, #130	@ 0x82
 8001e18:	9700      	str	r7, [sp, #0]
 8001e1a:	f7ff fdcf 	bl	80019bc <LCD_FillRect.part.0>
 8001e1e:	2350      	movs	r3, #80	@ 0x50
 8001e20:	22dc      	movs	r2, #220	@ 0xdc
 8001e22:	215a      	movs	r1, #90	@ 0x5a
 8001e24:	200a      	movs	r0, #10
 8001e26:	9600      	str	r6, [sp, #0]
 8001e28:	f7ff fdc8 	bl	80019bc <LCD_FillRect.part.0>
 8001e2c:	2350      	movs	r3, #80	@ 0x50
 8001e2e:	22a0      	movs	r2, #160	@ 0xa0
 8001e30:	21c8      	movs	r1, #200	@ 0xc8
 8001e32:	2028      	movs	r0, #40	@ 0x28
 8001e34:	9500      	str	r5, [sp, #0]
 8001e36:	f7ff fdc1 	bl	80019bc <LCD_FillRect.part.0>
    for(int i=0; i<5; i++){
 8001e3a:	3c01      	subs	r4, #1
 8001e3c:	d19e      	bne.n	8001d7c <main+0x2d4>
    while (1)
 8001e3e:	e7fe      	b.n	8001e3e <main+0x396>

08001e40 <HAL_MspInit>:
#include "main.h"

void HAL_MspInit(void)
{
    __HAL_RCC_PWR_CLK_ENABLE();
 8001e40:	4b0a      	ldr	r3, [pc, #40]	@ (8001e6c <HAL_MspInit+0x2c>)
{
 8001e42:	b082      	sub	sp, #8
    __HAL_RCC_PWR_CLK_ENABLE();
 8001e44:	6c1a      	ldr	r2, [r3, #64]	@ 0x40
 8001e46:	f042 5280 	orr.w	r2, r2, #268435456	@ 0x10000000
 8001e4a:	641a      	str	r2, [r3, #64]	@ 0x40
 8001e4c:	6c1a      	ldr	r2, [r3, #64]	@ 0x40
 8001e4e:	f002 5280 	and.w	r2, r2, #268435456	@ 0x10000000
 8001e52:	9200      	str	r2, [sp, #0]
 8001e54:	9a00      	ldr	r2, [sp, #0]
    __HAL_RCC_SYSCFG_CLK_ENABLE();
 8001e56:	6c5a      	ldr	r2, [r3, #68]	@ 0x44
 8001e58:	f442 4280 	orr.w	r2, r2, #16384	@ 0x4000
 8001e5c:	645a      	str	r2, [r3, #68]	@ 0x44
 8001e5e:	6c5b      	ldr	r3, [r3, #68]	@ 0x44
 8001e60:	f403 4380 	and.w	r3, r3, #16384	@ 0x4000
 8001e64:	9301      	str	r3, [sp, #4]
 8001e66:	9b01      	ldr	r3, [sp, #4]
}
 8001e68:	b002      	add	sp, #8
 8001e6a:	4770      	bx	lr
 8001e6c:	40023800 	.word	0x40023800

08001e70 <HAL_SPI_MspInit>:

void HAL_SPI_MspInit(SPI_HandleTypeDef *hspi)
{
 8001e70:	b510      	push	{r4, lr}
 8001e72:	b088      	sub	sp, #32
 8001e74:	4604      	mov	r4, r0
    GPIO_InitTypeDef GPIO_InitStruct = {0};
 8001e76:	2214      	movs	r2, #20
 8001e78:	2100      	movs	r1, #0
 8001e7a:	a803      	add	r0, sp, #12
 8001e7c:	f000 f893 	bl	8001fa6 <memset>

    if (hspi->Instance == SPI1)
 8001e80:	6822      	ldr	r2, [r4, #0]
 8001e82:	4b16      	ldr	r3, [pc, #88]	@ (8001edc <HAL_SPI_MspInit+0x6c>)
 8001e84:	429a      	cmp	r2, r3
 8001e86:	d126      	bne.n	8001ed6 <HAL_SPI_MspInit+0x66>
    {
        __HAL_RCC_SPI1_CLK_ENABLE();
 8001e88:	f503 3384 	add.w	r3, r3, #67584	@ 0x10800
        /* SPI1 SCK = PA5 (D13) */
        GPIO_InitStruct.Pin = GPIO_PIN_5;
        GPIO_InitStruct.Mode = GPIO_MODE_AF_PP;
        GPIO_InitStruct.Pull = GPIO_NOPULL;
        GPIO_InitStruct.Speed = GPIO_SPEED_FREQ_VERY_HIGH;
        GPIO_InitStruct.Alternate = GPIO_AF5_SPI1;
 8001e8c:	2405      	movs	r4, #5
        HAL_GPIO_Init(GPIOA, &GPIO_InitStruct);
 8001e8e:	a903      	add	r1, sp, #12
 8001e90:	4813      	ldr	r0, [pc, #76]	@ (8001ee0 <HAL_SPI_MspInit+0x70>)
        __HAL_RCC_SPI1_CLK_ENABLE();
 8001e92:	6c5a      	ldr	r2, [r3, #68]	@ 0x44
 8001e94:	f442 5280 	orr.w	r2, r2, #4096	@ 0x1000
 8001e98:	645a      	str	r2, [r3, #68]	@ 0x44
 8001e9a:	6c5a      	ldr	r2, [r3, #68]	@ 0x44
 8001e9c:	f402 5280 	and.w	r2, r2, #4096	@ 0x1000
 8001ea0:	9201      	str	r2, [sp, #4]
 8001ea2:	9a01      	ldr	r2, [sp, #4]
        __HAL_RCC_GPIOA_CLK_ENABLE();
 8001ea4:	6b1a      	ldr	r2, [r3, #48]	@ 0x30
 8001ea6:	f042 0201 	orr.w	r2, r2, #1
 8001eaa:	631a      	str	r2, [r3, #48]	@ 0x30
        GPIO_InitStruct.Mode = GPIO_MODE_AF_PP;
 8001eac:	2220      	movs	r2, #32
        __HAL_RCC_GPIOA_CLK_ENABLE();
 8001eae:	6b1b      	ldr	r3, [r3, #48]	@ 0x30
 8001eb0:	f003 0301 	and.w	r3, r3, #1
 8001eb4:	9302      	str	r3, [sp, #8]
 8001eb6:	9b02      	ldr	r3, [sp, #8]
        GPIO_InitStruct.Mode = GPIO_MODE_AF_PP;
 8001eb8:	2302      	movs	r3, #2
 8001eba:	e9cd 2303 	strd	r2, r3, [sp, #12]
        GPIO_InitStruct.Alternate = GPIO_AF5_SPI1;
 8001ebe:	2303      	movs	r3, #3
 8001ec0:	e9cd 3406 	strd	r3, r4, [sp, #24]
        HAL_GPIO_Init(GPIOA, &GPIO_InitStruct);
 8001ec4:	f7fe fae0 	bl	8000488 <HAL_GPIO_Init>

        /* SPI1 MOSI = PA7 (D11) */
        GPIO_InitStruct.Pin = GPIO_PIN_7;
 8001ec8:	2380      	movs	r3, #128	@ 0x80
        GPIO_InitStruct.Alternate = GPIO_AF5_SPI1;
        HAL_GPIO_Init(GPIOA, &GPIO_InitStruct);
 8001eca:	a903      	add	r1, sp, #12
 8001ecc:	4804      	ldr	r0, [pc, #16]	@ (8001ee0 <HAL_SPI_MspInit+0x70>)
        GPIO_InitStruct.Pin = GPIO_PIN_7;
 8001ece:	9303      	str	r3, [sp, #12]
        GPIO_InitStruct.Alternate = GPIO_AF5_SPI1;
 8001ed0:	9407      	str	r4, [sp, #28]
        HAL_GPIO_Init(GPIOA, &GPIO_InitStruct);
 8001ed2:	f7fe fad9 	bl	8000488 <HAL_GPIO_Init>
    }
}
 8001ed6:	b008      	add	sp, #32
 8001ed8:	bd10      	pop	{r4, pc}
 8001eda:	bf00      	nop
 8001edc:	40013000 	.word	0x40013000
 8001ee0:	40020000 	.word	0x40020000

08001ee4 <NMI_Handler>:

  /* USER CODE END NonMaskableInt_IRQn 0 */
  /* USER CODE BEGIN NonMaskableInt_IRQn 1 */

  /* USER CODE END NonMaskableInt_IRQn 1 */
}
 8001ee4:	4770      	bx	lr

08001ee6 <HardFault_Handler>:
void HardFault_Handler(void)
{
  /* USER CODE BEGIN HardFault_IRQn 0 */

  /* USER CODE END HardFault_IRQn 0 */
  while (1)
 8001ee6:	e7fe      	b.n	8001ee6 <HardFault_Handler>

08001ee8 <MemManage_Handler>:
void MemManage_Handler(void)
{
  /* USER CODE BEGIN MemoryManagement_IRQn 0 */

  /* USER CODE END MemoryManagement_IRQn 0 */
  while (1)
 8001ee8:	e7fe      	b.n	8001ee8 <MemManage_Handler>

08001eea <BusFault_Handler>:
void BusFault_Handler(void)
{
  /* USER CODE BEGIN BusFault_IRQn 0 */

  /* USER CODE END BusFault_IRQn 0 */
  while (1)
 8001eea:	e7fe      	b.n	8001eea <BusFault_Handler>

08001eec <UsageFault_Handler>:
void UsageFault_Handler(void)
{
  /* USER CODE BEGIN UsageFault_IRQn 0 */

  /* USER CODE END UsageFault_IRQn 0 */
  while (1)
 8001eec:	e7fe      	b.n	8001eec <UsageFault_Handler>

08001eee <DebugMon_Handler>:
}

/**
  * @brief This function handles Debug monitor.
  */
void DebugMon_Handler(void)
 8001eee:	4770      	bx	lr

08001ef0 <SysTick_Handler>:

/**
  * @brief This function handles System tick timer.
  */
void SysTick_Handler(void)
{
 8001ef0:	b508      	push	{r3, lr}
  /* USER CODE BEGIN SysTick_IRQn 0 */

  /* USER CODE END SysTick_IRQn 0 */
  HAL_IncTick();
 8001ef2:	f7fe fa2f 	bl	8000354 <HAL_IncTick>
#if (INCLUDE_xTaskGetSchedulerState == 1 )
  if (xTaskGetSchedulerState() != taskSCHEDULER_NOT_STARTED)
 8001ef6:	f7ff f85f 	bl	8000fb8 <xTaskGetSchedulerState>
 8001efa:	2801      	cmp	r0, #1
 8001efc:	d003      	beq.n	8001f06 <SysTick_Handler+0x16>
  }
#endif /* INCLUDE_xTaskGetSchedulerState */
  /* USER CODE BEGIN SysTick_IRQn 1 */

  /* USER CODE END SysTick_IRQn 1 */
}
 8001efe:	e8bd 4008 	ldmia.w	sp!, {r3, lr}
  xPortSysTickHandler();
 8001f02:	f7ff b8b7 	b.w	8001074 <xPortSysTickHandler>
}
 8001f06:	bd08      	pop	{r3, pc}

08001f08 <SystemInit>:
  */
void SystemInit(void)
{
  /* FPU settings ------------------------------------------------------------*/
  #if (__FPU_PRESENT == 1) && (__FPU_USED == 1)
    SCB->CPACR |= ((3UL << 10*2)|(3UL << 11*2));  /* set CP10 and CP11 Full Access */
 8001f08:	490f      	ldr	r1, [pc, #60]	@ (8001f48 <SystemInit+0x40>)
  /* Reset the RCC clock configuration to the default reset state ------------*/
  /* Set HSION bit */
  RCC->CR |= (uint32_t)0x00000001;

  /* Reset CFGR register */
  RCC->CFGR = 0x00000000;
 8001f0a:	2000      	movs	r0, #0
    SCB->CPACR |= ((3UL << 10*2)|(3UL << 11*2));  /* set CP10 and CP11 Full Access */
 8001f0c:	f8d1 3088 	ldr.w	r3, [r1, #136]	@ 0x88
 8001f10:	f443 0370 	orr.w	r3, r3, #15728640	@ 0xf00000
 8001f14:	f8c1 3088 	str.w	r3, [r1, #136]	@ 0x88
  RCC->CR |= (uint32_t)0x00000001;
 8001f18:	4b0c      	ldr	r3, [pc, #48]	@ (8001f4c <SystemInit+0x44>)
 8001f1a:	681a      	ldr	r2, [r3, #0]
 8001f1c:	f042 0201 	orr.w	r2, r2, #1
 8001f20:	601a      	str	r2, [r3, #0]
  RCC->CFGR = 0x00000000;
 8001f22:	6098      	str	r0, [r3, #8]

  /* Reset HSEON, CSSON and PLLON bits */
  RCC->CR &= (uint32_t)0xFEF6FFFF;
 8001f24:	681a      	ldr	r2, [r3, #0]
 8001f26:	f022 7284 	bic.w	r2, r2, #17301504	@ 0x1080000
 8001f2a:	f422 3280 	bic.w	r2, r2, #65536	@ 0x10000
 8001f2e:	601a      	str	r2, [r3, #0]

  /* Reset PLLCFGR register */
  RCC->PLLCFGR = 0x24003010;
 8001f30:	4a07      	ldr	r2, [pc, #28]	@ (8001f50 <SystemInit+0x48>)
 8001f32:	605a      	str	r2, [r3, #4]

  /* Reset HSEBYP bit */
  RCC->CR &= (uint32_t)0xFFFBFFFF;
 8001f34:	681a      	ldr	r2, [r3, #0]
 8001f36:	f422 2280 	bic.w	r2, r2, #262144	@ 0x40000
 8001f3a:	601a      	str	r2, [r3, #0]

  /* Disable all interrupts */
  RCC->CIR = 0x00000000;
 8001f3c:	60d8      	str	r0, [r3, #12]

  /* Configure the Vector Table location add offset address ------------------*/
#ifdef VECT_TAB_SRAM
  SCB->VTOR = RAMDTCM_BASE | VECT_TAB_OFFSET; /* Vector Table Relocation in Internal SRAM */
#else
  SCB->VTOR = FLASH_BASE | VECT_TAB_OFFSET; /* Vector Table Relocation in Internal FLASH */
 8001f3e:	f04f 6300 	mov.w	r3, #134217728	@ 0x8000000
 8001f42:	608b      	str	r3, [r1, #8]
#endif
}
 8001f44:	4770      	bx	lr
 8001f46:	bf00      	nop
 8001f48:	e000ed00 	.word	0xe000ed00
 8001f4c:	40023800 	.word	0x40023800
 8001f50:	24003010 	.word	0x24003010

08001f54 <Reset_Handler>:

    .section  .text.Reset_Handler
  .weak  Reset_Handler
  .type  Reset_Handler, %function
Reset_Handler:  
  ldr   sp, =_estack      /* set stack pointer */
 8001f54:	f8df d034 	ldr.w	sp, [pc, #52]	@ 8001f8c <LoopFillZerobss+0x14>

/* Copy the data segment initializers from flash to SRAM */  
  movs  r1, #0
 8001f58:	2100      	movs	r1, #0
  b  LoopCopyDataInit
 8001f5a:	e003      	b.n	8001f64 <LoopCopyDataInit>

08001f5c <CopyDataInit>:

CopyDataInit:
  ldr  r3, =_sidata
 8001f5c:	4b0c      	ldr	r3, [pc, #48]	@ (8001f90 <LoopFillZerobss+0x18>)
  ldr  r3, [r3, r1]
 8001f5e:	585b      	ldr	r3, [r3, r1]
  str  r3, [r0, r1]
 8001f60:	5043      	str	r3, [r0, r1]
  adds  r1, r1, #4
 8001f62:	3104      	adds	r1, #4

08001f64 <LoopCopyDataInit>:
    
LoopCopyDataInit:
  ldr  r0, =_sdata
 8001f64:	480b      	ldr	r0, [pc, #44]	@ (8001f94 <LoopFillZerobss+0x1c>)
  ldr  r3, =_edata
 8001f66:	4b0c      	ldr	r3, [pc, #48]	@ (8001f98 <LoopFillZerobss+0x20>)
  adds  r2, r0, r1
 8001f68:	1842      	adds	r2, r0, r1
  cmp  r2, r3
 8001f6a:	429a      	cmp	r2, r3
  bcc  CopyDataInit
 8001f6c:	d3f6      	bcc.n	8001f5c <CopyDataInit>
  ldr  r2, =_sbss
 8001f6e:	4a0b      	ldr	r2, [pc, #44]	@ (8001f9c <LoopFillZerobss+0x24>)
  b  LoopFillZerobss
 8001f70:	e002      	b.n	8001f78 <LoopFillZerobss>

08001f72 <FillZerobss>:
/* Zero fill the bss segment. */  
FillZerobss:
  movs  r3, #0
 8001f72:	2300      	movs	r3, #0
  str  r3, [r2], #4
 8001f74:	f842 3b04 	str.w	r3, [r2], #4

08001f78 <LoopFillZerobss>:
    
LoopFillZerobss:
  ldr  r3, = _ebss
 8001f78:	4b09      	ldr	r3, [pc, #36]	@ (8001fa0 <LoopFillZerobss+0x28>)
  cmp  r2, r3
 8001f7a:	429a      	cmp	r2, r3
  bcc  FillZerobss
 8001f7c:	d3f9      	bcc.n	8001f72 <FillZerobss>

/* Call the clock system initialization function.*/
  bl  SystemInit   
 8001f7e:	f7ff ffc3 	bl	8001f08 <SystemInit>
/* Call static constructors */
    bl __libc_init_array
 8001f82:	f000 f819 	bl	8001fb8 <__libc_init_array>
/* Call the application's entry point.*/
  bl  main
 8001f86:	f7ff fd8f 	bl	8001aa8 <main>
  bx  lr    
 8001f8a:	4770      	bx	lr
  ldr   sp, =_estack      /* set stack pointer */
 8001f8c:	20080000 	.word	0x20080000
  ldr  r3, =_sidata
 8001f90:	080021bc 	.word	0x080021bc
  ldr  r0, =_sdata
 8001f94:	20000000 	.word	0x20000000
  ldr  r3, =_edata
 8001f98:	2000000c 	.word	0x2000000c
  ldr  r2, =_sbss
 8001f9c:	2000000c 	.word	0x2000000c
  ldr  r3, = _ebss
 8001fa0:	20000ae8 	.word	0x20000ae8

08001fa4 <ADC_IRQHandler>:
 * @retval None       
*/
    .section  .text.Default_Handler,"ax",%progbits
Default_Handler:
Infinite_Loop:
  b  Infinite_Loop
 8001fa4:	e7fe      	b.n	8001fa4 <ADC_IRQHandler>

08001fa6 <memset>:
 8001fa6:	4402      	add	r2, r0
 8001fa8:	4603      	mov	r3, r0
 8001faa:	4293      	cmp	r3, r2
 8001fac:	d100      	bne.n	8001fb0 <memset+0xa>
 8001fae:	4770      	bx	lr
 8001fb0:	f803 1b01 	strb.w	r1, [r3], #1
 8001fb4:	e7f9      	b.n	8001faa <memset+0x4>
	...

08001fb8 <__libc_init_array>:
 8001fb8:	b570      	push	{r4, r5, r6, lr}
 8001fba:	4d0d      	ldr	r5, [pc, #52]	@ (8001ff0 <__libc_init_array+0x38>)
 8001fbc:	4c0d      	ldr	r4, [pc, #52]	@ (8001ff4 <__libc_init_array+0x3c>)
 8001fbe:	1b64      	subs	r4, r4, r5
 8001fc0:	10a4      	asrs	r4, r4, #2
 8001fc2:	2600      	movs	r6, #0
 8001fc4:	42a6      	cmp	r6, r4
 8001fc6:	d109      	bne.n	8001fdc <__libc_init_array+0x24>
 8001fc8:	4d0b      	ldr	r5, [pc, #44]	@ (8001ff8 <__libc_init_array+0x40>)
 8001fca:	4c0c      	ldr	r4, [pc, #48]	@ (8001ffc <__libc_init_array+0x44>)
 8001fcc:	f000 f82e 	bl	800202c <_init>
 8001fd0:	1b64      	subs	r4, r4, r5
 8001fd2:	10a4      	asrs	r4, r4, #2
 8001fd4:	2600      	movs	r6, #0
 8001fd6:	42a6      	cmp	r6, r4
 8001fd8:	d105      	bne.n	8001fe6 <__libc_init_array+0x2e>
 8001fda:	bd70      	pop	{r4, r5, r6, pc}
 8001fdc:	f855 3b04 	ldr.w	r3, [r5], #4
 8001fe0:	4798      	blx	r3
 8001fe2:	3601      	adds	r6, #1
 8001fe4:	e7ee      	b.n	8001fc4 <__libc_init_array+0xc>
 8001fe6:	f855 3b04 	ldr.w	r3, [r5], #4
 8001fea:	4798      	blx	r3
 8001fec:	3601      	adds	r6, #1
 8001fee:	e7f2      	b.n	8001fd6 <__libc_init_array+0x1e>
 8001ff0:	080021b4 	.word	0x080021b4
 8001ff4:	080021b4 	.word	0x080021b4
 8001ff8:	080021b4 	.word	0x080021b4
 8001ffc:	080021b8 	.word	0x080021b8

08002000 <strcpy>:
 8002000:	4603      	mov	r3, r0
 8002002:	f811 2b01 	ldrb.w	r2, [r1], #1
 8002006:	f803 2b01 	strb.w	r2, [r3], #1
 800200a:	2a00      	cmp	r2, #0
 800200c:	d1f9      	bne.n	8002002 <strcpy+0x2>
 800200e:	4770      	bx	lr

08002010 <memcpy>:
 8002010:	440a      	add	r2, r1
 8002012:	4291      	cmp	r1, r2
 8002014:	f100 33ff 	add.w	r3, r0, #4294967295
 8002018:	d100      	bne.n	800201c <memcpy+0xc>
 800201a:	4770      	bx	lr
 800201c:	b510      	push	{r4, lr}
 800201e:	f811 4b01 	ldrb.w	r4, [r1], #1
 8002022:	f803 4f01 	strb.w	r4, [r3, #1]!
 8002026:	4291      	cmp	r1, r2
 8002028:	d1f9      	bne.n	800201e <memcpy+0xe>
 800202a:	bd10      	pop	{r4, pc}

0800202c <_init>:
 800202c:	b5f8      	push	{r3, r4, r5, r6, r7, lr}
 800202e:	bf00      	nop
 8002030:	bcf8      	pop	{r3, r4, r5, r6, r7}
 8002032:	bc08      	pop	{r3}
 8002034:	469e      	mov	lr, r3
 8002036:	4770      	bx	lr

08002038 <_fini>:
 8002038:	b5f8      	push	{r3, r4, r5, r6, r7, lr}
 800203a:	bf00      	nop
 800203c:	bcf8      	pop	{r3, r4, r5, r6, r7}
 800203e:	bc08      	pop	{r3}
 8002040:	469e      	mov	lr, r3
 8002042:	4770      	bx	lr
